	.text
	.file	"hisi-bkops-core.c"
	.file	1 "/mnt/disk/jenkins/ci/workspace/chipset_pipeline_release/opensource/component_code/vendor/huawei/extra/build/build_script/kirin_kernel_release/kernel/include/asm-generic/int-ll64.h"
	.file	2 "/mnt/disk/jenkins/ci/workspace/chipset_pipeline_release/opensource/component_code/vendor/huawei/extra/build/build_script/kirin_kernel_release/kernel/arch/arm64/include/asm/spinlock_types.h"
	.file	3 "/mnt/disk/jenkins/ci/workspace/chipset_pipeline_release/opensource/component_code/vendor/huawei/extra/build/build_script/kirin_kernel_release/kernel/include/linux/spinlock_types.h"
	.file	4 "/mnt/disk/jenkins/ci/workspace/chipset_pipeline_release/opensource/component_code/vendor/huawei/extra/build/build_script/kirin_kernel_release/kernel/include/linux/ratelimit.h"
	.file	5 "/mnt/disk/jenkins/ci/workspace/chipset_pipeline_release/opensource/component_code/vendor/huawei/extra/build/build_script/kirin_kernel_release/kernel/block/hisi-bkops-core.c"
	.file	6 "/mnt/disk/jenkins/ci/workspace/chipset_pipeline_release/opensource/component_code/vendor/huawei/extra/build/build_script/kirin_kernel_release/kernel/include/linux/types.h"
	.file	7 "/mnt/disk/jenkins/ci/workspace/chipset_pipeline_release/opensource/component_code/vendor/huawei/extra/build/build_script/kirin_kernel_release/kernel/include/asm-generic/atomic-long.h"
	.file	8 "/mnt/disk/jenkins/ci/workspace/chipset_pipeline_release/opensource/component_code/vendor/huawei/extra/build/build_script/kirin_kernel_release/kernel/include/linux/mutex.h"
	.file	9 "/mnt/disk/jenkins/ci/workspace/chipset_pipeline_release/opensource/component_code/vendor/huawei/extra/build/build_script/kirin_kernel_release/kernel/include/linux/osq_lock.h"
	.file	10 "/mnt/disk/jenkins/ci/workspace/chipset_pipeline_release/opensource/component_code/vendor/huawei/extra/build/build_script/kirin_kernel_release/kernel/arch/arm64/include/asm/thread_info.h"
	.file	11 "/mnt/disk/jenkins/ci/workspace/chipset_pipeline_release/opensource/component_code/vendor/huawei/extra/build/build_script/kirin_kernel_release/kernel/include/linux/sched.h"
	.file	12 "/mnt/disk/jenkins/ci/workspace/chipset_pipeline_release/opensource/component_code/vendor/huawei/extra/build/build_script/kirin_kernel_release/kernel/include/uapi/asm-generic/posix_types.h"
	.file	13 "/mnt/disk/jenkins/ci/workspace/chipset_pipeline_release/opensource/component_code/vendor/huawei/extra/build/build_script/kirin_kernel_release/kernel/include/linux/llist.h"
	.file	14 "/mnt/disk/jenkins/ci/workspace/chipset_pipeline_release/opensource/component_code/vendor/huawei/extra/build/build_script/kirin_kernel_release/kernel/include/linux/rbtree.h"
	.file	15 "/mnt/disk/jenkins/ci/workspace/chipset_pipeline_release/opensource/component_code/vendor/huawei/extra/build/build_script/kirin_kernel_release/kernel/include/linux/cpumask.h"
	.file	16 "/mnt/disk/jenkins/ci/workspace/chipset_pipeline_release/opensource/component_code/vendor/huawei/extra/build/build_script/kirin_kernel_release/kernel/include/linux/timerqueue.h"
	.file	17 "/mnt/disk/jenkins/ci/workspace/chipset_pipeline_release/opensource/component_code/vendor/huawei/extra/build/build_script/kirin_kernel_release/kernel/include/linux/ktime.h"
	.file	18 "/mnt/disk/jenkins/ci/workspace/chipset_pipeline_release/opensource/component_code/vendor/huawei/extra/build/build_script/kirin_kernel_release/kernel/include/linux/hrtimer.h"
	.file	19 "/mnt/disk/jenkins/ci/workspace/chipset_pipeline_release/opensource/component_code/vendor/huawei/extra/build/build_script/kirin_kernel_release/kernel/include/linux/seqlock.h"
	.file	20 "/mnt/disk/jenkins/ci/workspace/chipset_pipeline_release/opensource/component_code/vendor/huawei/extra/build/build_script/kirin_kernel_release/kernel/include/linux/plist.h"
	.file	21 "/mnt/disk/jenkins/ci/workspace/chipset_pipeline_release/opensource/component_code/vendor/huawei/extra/build/build_script/kirin_kernel_release/kernel/include/linux/mm_types.h"
	.file	22 "/mnt/disk/jenkins/ci/workspace/chipset_pipeline_release/opensource/component_code/vendor/huawei/extra/build/build_script/kirin_kernel_release/kernel/arch/arm64/include/asm/pgtable-types.h"
	.file	23 "/mnt/disk/jenkins/ci/workspace/chipset_pipeline_release/opensource/component_code/vendor/huawei/extra/build/build_script/kirin_kernel_release/kernel/include/linux/mm.h"
	.file	24 "/mnt/disk/jenkins/ci/workspace/chipset_pipeline_release/opensource/component_code/vendor/huawei/extra/build/build_script/kirin_kernel_release/kernel/include/asm-generic/pgtable-nop4d-hack.h"
	.file	25 "/mnt/disk/jenkins/ci/workspace/chipset_pipeline_release/opensource/component_code/vendor/huawei/extra/build/build_script/kirin_kernel_release/kernel/include/linux/fs.h"
	.file	26 "/mnt/disk/jenkins/ci/workspace/chipset_pipeline_release/opensource/component_code/vendor/huawei/extra/build/build_script/kirin_kernel_release/kernel/include/linux/uidgid.h"
	.file	27 "/mnt/disk/jenkins/ci/workspace/chipset_pipeline_release/opensource/component_code/vendor/huawei/extra/build/build_script/kirin_kernel_release/kernel/include/linux/dcache.h"
	.file	28 "/mnt/disk/jenkins/ci/workspace/chipset_pipeline_release/opensource/component_code/vendor/huawei/extra/build/build_script/kirin_kernel_release/kernel/include/linux/list_bl.h"
	.file	29 "/mnt/disk/jenkins/ci/workspace/chipset_pipeline_release/opensource/component_code/vendor/huawei/extra/build/build_script/kirin_kernel_release/kernel/include/linux/lockref.h"
	.file	30 "/mnt/disk/jenkins/ci/workspace/chipset_pipeline_release/opensource/component_code/vendor/huawei/extra/build/build_script/kirin_kernel_release/kernel/include/linux/path.h"
	.file	31 "/mnt/disk/jenkins/ci/workspace/chipset_pipeline_release/opensource/component_code/vendor/huawei/extra/build/build_script/kirin_kernel_release/kernel/include/uapi/asm-generic/int-ll64.h"
	.file	32 "/mnt/disk/jenkins/ci/workspace/chipset_pipeline_release/opensource/component_code/vendor/huawei/extra/build/build_script/kirin_kernel_release/kernel/include/linux/module.h"
	.file	33 "/mnt/disk/jenkins/ci/workspace/chipset_pipeline_release/opensource/component_code/vendor/huawei/extra/build/build_script/kirin_kernel_release/kernel/include/linux/kobject.h"
	.file	34 "/mnt/disk/jenkins/ci/workspace/chipset_pipeline_release/opensource/component_code/vendor/huawei/extra/build/build_script/kirin_kernel_release/kernel/include/linux/sysfs.h"
	.file	35 "/mnt/disk/jenkins/ci/workspace/chipset_pipeline_release/opensource/component_code/vendor/huawei/extra/build/build_script/kirin_kernel_release/kernel/include/linux/kobject_ns.h"
	.file	36 "/mnt/disk/jenkins/ci/workspace/chipset_pipeline_release/opensource/component_code/vendor/huawei/extra/build/build_script/kirin_kernel_release/kernel/include/linux/kernfs.h"
	.file	37 "/mnt/disk/jenkins/ci/workspace/chipset_pipeline_release/opensource/component_code/vendor/huawei/extra/build/build_script/kirin_kernel_release/kernel/include/linux/radix-tree.h"
	.file	38 "/mnt/disk/jenkins/ci/workspace/chipset_pipeline_release/opensource/component_code/vendor/huawei/extra/build/build_script/kirin_kernel_release/kernel/include/linux/idr.h"
	.file	39 "/mnt/disk/jenkins/ci/workspace/chipset_pipeline_release/opensource/component_code/vendor/huawei/extra/build/build_script/kirin_kernel_release/kernel/include/linux/seq_file.h"
	.file	40 "/mnt/disk/jenkins/ci/workspace/chipset_pipeline_release/opensource/component_code/vendor/huawei/extra/build/build_script/kirin_kernel_release/kernel/include/linux/wait.h"
	.file	41 "/mnt/disk/jenkins/ci/workspace/chipset_pipeline_release/opensource/component_code/vendor/huawei/extra/build/build_script/kirin_kernel_release/kernel/include/linux/nfs_fs_i.h"
	.file	42 "/mnt/disk/jenkins/ci/workspace/chipset_pipeline_release/opensource/component_code/vendor/huawei/extra/build/build_script/kirin_kernel_release/kernel/include/linux/rwlock_types.h"
	.file	43 "/mnt/disk/jenkins/ci/workspace/chipset_pipeline_release/opensource/component_code/vendor/huawei/extra/build/build_script/kirin_kernel_release/kernel/include/linux/pid.h"
	.file	44 "/mnt/disk/jenkins/ci/workspace/chipset_pipeline_release/opensource/component_code/vendor/huawei/extra/build/build_script/kirin_kernel_release/kernel/include/linux/cred.h"
	.file	45 "/mnt/disk/jenkins/ci/workspace/chipset_pipeline_release/opensource/component_code/vendor/huawei/extra/build/build_script/kirin_kernel_release/kernel/include/linux/capability.h"
	.file	46 "/mnt/disk/jenkins/ci/workspace/chipset_pipeline_release/opensource/component_code/vendor/huawei/extra/build/build_script/kirin_kernel_release/kernel/include/linux/refcount.h"
	.file	47 "/mnt/disk/jenkins/ci/workspace/chipset_pipeline_release/opensource/component_code/vendor/huawei/extra/build/build_script/kirin_kernel_release/kernel/include/linux/key.h"
	.file	48 "/mnt/disk/jenkins/ci/workspace/chipset_pipeline_release/opensource/component_code/vendor/huawei/extra/build/build_script/kirin_kernel_release/kernel/include/linux/rwsem.h"
	.file	49 "/mnt/disk/jenkins/ci/workspace/chipset_pipeline_release/opensource/component_code/vendor/huawei/extra/build/build_script/kirin_kernel_release/kernel/include/linux/assoc_array.h"
	.file	50 "/mnt/disk/jenkins/ci/workspace/chipset_pipeline_release/opensource/component_code/vendor/huawei/extra/build/build_script/kirin_kernel_release/kernel/include/linux/sched/user.h"
	.file	51 "/mnt/disk/jenkins/ci/workspace/chipset_pipeline_release/opensource/component_code/vendor/huawei/extra/build/build_script/kirin_kernel_release/kernel/include/linux/user_namespace.h"
	.file	52 "/mnt/disk/jenkins/ci/workspace/chipset_pipeline_release/opensource/component_code/vendor/huawei/extra/build/build_script/kirin_kernel_release/kernel/include/linux/ns_common.h"
	.file	53 "/mnt/disk/jenkins/ci/workspace/chipset_pipeline_release/opensource/component_code/vendor/huawei/extra/build/build_script/kirin_kernel_release/kernel/include/linux/workqueue.h"
	.file	54 "/mnt/disk/jenkins/ci/workspace/chipset_pipeline_release/opensource/component_code/vendor/huawei/extra/build/build_script/kirin_kernel_release/kernel/include/linux/sysctl.h"
	.file	55 "/mnt/disk/jenkins/ci/workspace/chipset_pipeline_release/opensource/component_code/vendor/huawei/extra/build/build_script/kirin_kernel_release/kernel/include/linux/completion.h"
	.file	56 "/mnt/disk/jenkins/ci/workspace/chipset_pipeline_release/opensource/component_code/vendor/huawei/extra/build/build_script/kirin_kernel_release/kernel/include/linux/errseq.h"
	.file	57 "/mnt/disk/jenkins/ci/workspace/chipset_pipeline_release/opensource/component_code/vendor/huawei/extra/build/build_script/kirin_kernel_release/kernel/include/linux/kref.h"
	.file	58 "/mnt/disk/jenkins/ci/workspace/chipset_pipeline_release/opensource/component_code/vendor/huawei/extra/build/build_script/kirin_kernel_release/kernel/include/linux/export.h"
	.file	59 "/mnt/disk/jenkins/ci/workspace/chipset_pipeline_release/opensource/component_code/vendor/huawei/extra/build/build_script/kirin_kernel_release/kernel/include/linux/moduleparam.h"
	.file	60 "/mnt/disk/jenkins/ci/workspace/chipset_pipeline_release/opensource/component_code/vendor/huawei/extra/build/build_script/kirin_kernel_release/kernel/arch/arm64/include/asm/extable.h"
	.file	61 "/mnt/disk/jenkins/ci/workspace/chipset_pipeline_release/opensource/component_code/vendor/huawei/extra/build/build_script/kirin_kernel_release/kernel/include/linux/rbtree_latch.h"
	.file	62 "/mnt/disk/jenkins/ci/workspace/chipset_pipeline_release/opensource/component_code/vendor/huawei/extra/build/build_script/kirin_kernel_release/kernel/include/uapi/linux/elf.h"
	.file	63 "/mnt/disk/jenkins/ci/workspace/chipset_pipeline_release/opensource/component_code/vendor/huawei/extra/build/build_script/kirin_kernel_release/kernel/arch/arm64/include/asm/module.h"
	.file	64 "/mnt/disk/jenkins/ci/workspace/chipset_pipeline_release/opensource/component_code/vendor/huawei/extra/build/build_script/kirin_kernel_release/kernel/include/uapi/linux/types.h"
	.file	65 "/mnt/disk/jenkins/ci/workspace/chipset_pipeline_release/opensource/component_code/vendor/huawei/extra/build/build_script/kirin_kernel_release/kernel/include/asm-generic/bug.h"
	.file	66 "/mnt/disk/jenkins/ci/workspace/chipset_pipeline_release/opensource/component_code/vendor/huawei/extra/build/build_script/kirin_kernel_release/kernel/include/linux/tracepoint-defs.h"
	.file	67 "/mnt/disk/jenkins/ci/workspace/chipset_pipeline_release/opensource/component_code/vendor/huawei/extra/build/build_script/kirin_kernel_release/kernel/include/linux/jump_label.h"
	.file	68 "/mnt/disk/jenkins/ci/workspace/chipset_pipeline_release/opensource/component_code/vendor/huawei/extra/build/build_script/kirin_kernel_release/kernel/include/linux/lockdep.h"
	.file	69 "/mnt/disk/jenkins/ci/workspace/chipset_pipeline_release/opensource/component_code/vendor/huawei/extra/build/build_script/kirin_kernel_release/kernel/include/linux/writeback.h"
	.file	70 "/mnt/disk/jenkins/ci/workspace/chipset_pipeline_release/opensource/component_code/vendor/huawei/extra/build/build_script/kirin_kernel_release/kernel/include/linux/backing-dev-defs.h"
	.file	71 "/mnt/disk/jenkins/ci/workspace/chipset_pipeline_release/opensource/component_code/vendor/huawei/extra/build/build_script/kirin_kernel_release/kernel/include/linux/device.h"
	.file	72 "/mnt/disk/jenkins/ci/workspace/chipset_pipeline_release/opensource/component_code/vendor/huawei/extra/build/build_script/kirin_kernel_release/kernel/include/linux/pm.h"
	.file	73 "/mnt/disk/jenkins/ci/workspace/chipset_pipeline_release/opensource/component_code/vendor/huawei/extra/build/build_script/kirin_kernel_release/kernel/include/linux/pm_wakeup.h"
	.file	74 "/mnt/disk/jenkins/ci/workspace/chipset_pipeline_release/opensource/component_code/vendor/huawei/extra/build/build_script/kirin_kernel_release/kernel/include/linux/timer.h"
	.file	75 "/mnt/disk/jenkins/ci/workspace/chipset_pipeline_release/opensource/component_code/vendor/huawei/extra/build/build_script/kirin_kernel_release/kernel/include/linux/pinctrl/devinfo.h"
	.file	76 "/mnt/disk/jenkins/ci/workspace/chipset_pipeline_release/opensource/component_code/vendor/huawei/extra/build/build_script/kirin_kernel_release/kernel/arch/arm64/include/asm/device.h"
	.file	77 "/mnt/disk/jenkins/ci/workspace/chipset_pipeline_release/opensource/component_code/vendor/huawei/extra/build/build_script/kirin_kernel_release/kernel/include/linux/klist.h"
	.file	78 "/mnt/disk/jenkins/ci/workspace/chipset_pipeline_release/opensource/component_code/vendor/huawei/extra/build/build_script/kirin_kernel_release/kernel/include/linux/blkdev.h"
	.file	79 "/mnt/disk/jenkins/ci/workspace/chipset_pipeline_release/opensource/component_code/vendor/huawei/extra/build/build_script/kirin_kernel_release/kernel/include/linux/smp.h"
	.file	80 "/mnt/disk/jenkins/ci/workspace/chipset_pipeline_release/opensource/component_code/vendor/huawei/extra/build/build_script/kirin_kernel_release/kernel/block/blk-mq.h"
	.file	81 "/mnt/disk/jenkins/ci/workspace/chipset_pipeline_release/opensource/component_code/vendor/huawei/extra/build/build_script/kirin_kernel_release/kernel/include/linux/blk_types.h"
	.file	82 "/mnt/disk/jenkins/ci/workspace/chipset_pipeline_release/opensource/component_code/vendor/huawei/extra/build/build_script/kirin_kernel_release/kernel/include/linux/genhd.h"
	.file	83 "/mnt/disk/jenkins/ci/workspace/chipset_pipeline_release/opensource/component_code/vendor/huawei/extra/build/build_script/kirin_kernel_release/kernel/include/linux/percpu-refcount.h"
	.file	84 "/mnt/disk/jenkins/ci/workspace/chipset_pipeline_release/opensource/component_code/vendor/huawei/extra/build/build_script/kirin_kernel_release/kernel/include/linux/bvec.h"
	.file	85 "/mnt/disk/jenkins/ci/workspace/chipset_pipeline_release/opensource/component_code/vendor/huawei/extra/build/build_script/kirin_kernel_release/kernel/include/uapi/linux/time.h"
	.file	86 "/mnt/disk/jenkins/ci/workspace/chipset_pipeline_release/opensource/component_code/vendor/huawei/extra/build/build_script/kirin_kernel_release/kernel/include/linux/iocontext.h"
	.file	87 "/mnt/disk/jenkins/ci/workspace/chipset_pipeline_release/opensource/component_code/vendor/huawei/extra/build/build_script/kirin_kernel_release/kernel/include/linux/cgroup-defs.h"
	.file	88 "/mnt/disk/jenkins/ci/workspace/chipset_pipeline_release/opensource/component_code/vendor/huawei/extra/build/build_script/kirin_kernel_release/kernel/include/linux/psi_types.h"
	.file	89 "/mnt/disk/jenkins/ci/workspace/chipset_pipeline_release/opensource/component_code/vendor/huawei/extra/build/build_script/kirin_kernel_release/kernel/include/linux/kthread.h"
	.file	90 "/mnt/disk/jenkins/ci/workspace/chipset_pipeline_release/opensource/component_code/vendor/huawei/extra/build/build_script/kirin_kernel_release/kernel/include/linux/bpf-cgroup.h"
	.file	91 "/mnt/disk/jenkins/ci/workspace/chipset_pipeline_release/opensource/component_code/vendor/huawei/extra/build/build_script/kirin_kernel_release/kernel/include/linux/bio.h"
	.file	92 "/mnt/disk/jenkins/ci/workspace/chipset_pipeline_release/opensource/component_code/vendor/huawei/extra/build/build_script/kirin_kernel_release/kernel/include/linux/mempool.h"
	.file	93 "/mnt/disk/jenkins/ci/workspace/chipset_pipeline_release/opensource/component_code/vendor/huawei/extra/build/build_script/kirin_kernel_release/kernel/include/linux/elevator.h"
	.file	94 "/mnt/disk/jenkins/ci/workspace/chipset_pipeline_release/opensource/component_code/vendor/huawei/extra/build/build_script/kirin_kernel_release/kernel/include/linux/blk-mq.h"
	.file	95 "/mnt/disk/jenkins/ci/workspace/chipset_pipeline_release/opensource/component_code/vendor/huawei/extra/build/build_script/kirin_kernel_release/kernel/block/blk.h"
	.file	96 "/mnt/disk/jenkins/ci/workspace/chipset_pipeline_release/opensource/component_code/vendor/huawei/extra/build/build_script/kirin_kernel_release/kernel/include/linux/sbitmap.h"
	.file	97 "/mnt/disk/jenkins/ci/workspace/chipset_pipeline_release/opensource/component_code/vendor/huawei/extra/build/build_script/kirin_kernel_release/kernel/include/linux/srcutree.h"
	.file	98 "/mnt/disk/jenkins/ci/workspace/chipset_pipeline_release/opensource/component_code/vendor/huawei/extra/build/build_script/kirin_kernel_release/kernel/include/linux/rcu_segcblist.h"
	.file	99 "/mnt/disk/jenkins/ci/workspace/chipset_pipeline_release/opensource/component_code/vendor/huawei/extra/build/build_script/kirin_kernel_release/kernel/include/linux/notifier.h"
	.file	100 "/mnt/disk/jenkins/ci/workspace/chipset_pipeline_release/opensource/component_code/vendor/huawei/extra/build/build_script/kirin_kernel_release/kernel/block/hisi-blk.h"
	.file	101 "/mnt/disk/jenkins/ci/workspace/chipset_pipeline_release/opensource/component_code/vendor/huawei/extra/build/build_script/kirin_kernel_release/kernel/block/blk-stat.h"
	.file	102 "/mnt/disk/jenkins/ci/workspace/chipset_pipeline_release/opensource/component_code/vendor/huawei/extra/build/build_script/kirin_kernel_release/kernel/include/linux/bsg.h"
	.file	103 "/mnt/disk/jenkins/ci/workspace/chipset_pipeline_release/opensource/component_code/vendor/huawei/extra/build/build_script/kirin_kernel_release/kernel/include/linux/percpu_counter.h"
	.file	104 "/mnt/disk/jenkins/ci/workspace/chipset_pipeline_release/opensource/component_code/vendor/huawei/extra/build/build_script/kirin_kernel_release/kernel/include/linux/flex_proportions.h"
	.file	105 "/mnt/disk/jenkins/ci/workspace/chipset_pipeline_release/opensource/component_code/vendor/huawei/extra/build/build_script/kirin_kernel_release/kernel/include/linux/statfs.h"
	.file	106 "/mnt/disk/jenkins/ci/workspace/chipset_pipeline_release/opensource/component_code/vendor/huawei/extra/build/build_script/kirin_kernel_release/kernel/include/linux/quota.h"
	.file	107 "/mnt/disk/jenkins/ci/workspace/chipset_pipeline_release/opensource/component_code/vendor/huawei/extra/build/build_script/kirin_kernel_release/kernel/include/linux/projid.h"
	.file	108 "/mnt/disk/jenkins/ci/workspace/chipset_pipeline_release/opensource/component_code/vendor/huawei/extra/build/build_script/kirin_kernel_release/kernel/include/linux/time64.h"
	.file	109 "/mnt/disk/jenkins/ci/workspace/chipset_pipeline_release/opensource/component_code/vendor/huawei/extra/build/build_script/kirin_kernel_release/kernel/include/linux/shrinker.h"
	.file	110 "/mnt/disk/jenkins/ci/workspace/chipset_pipeline_release/opensource/component_code/vendor/huawei/extra/build/build_script/kirin_kernel_release/kernel/include/linux/memcontrol.h"
	.file	111 "/mnt/disk/jenkins/ci/workspace/chipset_pipeline_release/opensource/component_code/vendor/huawei/extra/build/build_script/kirin_kernel_release/kernel/include/linux/page_counter.h"
	.file	112 "/mnt/disk/jenkins/ci/workspace/chipset_pipeline_release/opensource/component_code/vendor/huawei/extra/build/build_script/kirin_kernel_release/kernel/include/linux/vmpressure.h"
	.file	113 "/mnt/disk/jenkins/ci/workspace/chipset_pipeline_release/opensource/component_code/vendor/huawei/extra/build/build_script/kirin_kernel_release/kernel/include/linux/mmzone.h"
	.file	114 "/mnt/disk/jenkins/ci/workspace/chipset_pipeline_release/opensource/component_code/vendor/huawei/extra/build/build_script/kirin_kernel_release/kernel/include/linux/rcu_sync.h"
	.file	115 "/mnt/disk/jenkins/ci/workspace/chipset_pipeline_release/opensource/component_code/vendor/huawei/extra/build/build_script/kirin_kernel_release/kernel/include/linux/percpu-rwsem.h"
	.file	116 "/mnt/disk/jenkins/ci/workspace/chipset_pipeline_release/opensource/component_code/vendor/huawei/extra/build/build_script/kirin_kernel_release/kernel/include/linux/rcuwait.h"
	.file	117 "/mnt/disk/jenkins/ci/workspace/chipset_pipeline_release/opensource/component_code/vendor/huawei/extra/build/build_script/kirin_kernel_release/kernel/include/linux/uuid.h"
	.file	118 "/mnt/disk/jenkins/ci/workspace/chipset_pipeline_release/opensource/component_code/vendor/huawei/extra/build/build_script/kirin_kernel_release/kernel/include/linux/list_lru.h"
	.file	119 "/mnt/disk/jenkins/ci/workspace/chipset_pipeline_release/opensource/component_code/vendor/huawei/extra/build/build_script/kirin_kernel_release/kernel/include/linux/delayed_call.h"
	.file	120 "/mnt/disk/jenkins/ci/workspace/chipset_pipeline_release/opensource/component_code/vendor/huawei/extra/build/build_script/kirin_kernel_release/kernel/include/linux/stat.h"
	.file	121 "/mnt/disk/jenkins/ci/workspace/chipset_pipeline_release/opensource/component_code/vendor/huawei/extra/build/build_script/kirin_kernel_release/kernel/include/uapi/linux/fiemap.h"
	.file	122 "/mnt/disk/jenkins/ci/workspace/chipset_pipeline_release/opensource/component_code/vendor/huawei/extra/build/build_script/kirin_kernel_release/kernel/include/linux/migrate_mode.h"
	.file	123 "/mnt/disk/jenkins/ci/workspace/chipset_pipeline_release/opensource/component_code/vendor/huawei/extra/build/build_script/kirin_kernel_release/kernel/include/linux/swap.h"
	.file	124 "/mnt/disk/jenkins/ci/workspace/chipset_pipeline_release/opensource/component_code/vendor/huawei/extra/build/build_script/kirin_kernel_release/kernel/include/linux/memremap.h"
	.file	125 "/mnt/disk/jenkins/ci/workspace/chipset_pipeline_release/opensource/component_code/vendor/huawei/extra/build/build_script/kirin_kernel_release/kernel/include/linux/ioport.h"
	.file	126 "/mnt/disk/jenkins/ci/workspace/chipset_pipeline_release/opensource/component_code/vendor/huawei/extra/build/build_script/kirin_kernel_release/kernel/arch/arm64/include/asm/page.h"
	.file	127 "/mnt/disk/jenkins/ci/workspace/chipset_pipeline_release/opensource/component_code/vendor/huawei/extra/build/build_script/kirin_kernel_release/kernel/include/linux/mm_types_task.h"
	.file	128 "/mnt/disk/jenkins/ci/workspace/chipset_pipeline_release/opensource/component_code/vendor/huawei/extra/build/build_script/kirin_kernel_release/kernel/arch/arm64/include/asm/mmu.h"
	.file	129 "/mnt/disk/jenkins/ci/workspace/chipset_pipeline_release/opensource/component_code/vendor/huawei/extra/build/build_script/kirin_kernel_release/kernel/include/linux/uprobes.h"
	.file	130 "/mnt/disk/jenkins/ci/workspace/chipset_pipeline_release/opensource/component_code/vendor/huawei/extra/build/build_script/kirin_kernel_release/kernel/include/linux/restart_block.h"
	.file	131 "/mnt/disk/jenkins/ci/workspace/chipset_pipeline_release/opensource/component_code/vendor/huawei/extra/build/build_script/kirin_kernel_release/kernel/arch/arm64/include/asm/compat.h"
	.file	132 "/mnt/disk/jenkins/ci/workspace/chipset_pipeline_release/opensource/component_code/vendor/huawei/extra/build/build_script/kirin_kernel_release/kernel/include/linux/nsproxy.h"
	.file	133 "/mnt/disk/jenkins/ci/workspace/chipset_pipeline_release/opensource/component_code/vendor/huawei/extra/build/build_script/kirin_kernel_release/kernel/include/linux/cgroup.h"
	.file	134 "/mnt/disk/jenkins/ci/workspace/chipset_pipeline_release/opensource/component_code/vendor/huawei/extra/build/build_script/kirin_kernel_release/kernel/include/uapi/asm-generic/signal.h"
	.file	135 "/mnt/disk/jenkins/ci/workspace/chipset_pipeline_release/opensource/component_code/vendor/huawei/extra/build/build_script/kirin_kernel_release/kernel/include/linux/signal_types.h"
	.file	136 "/mnt/disk/jenkins/ci/workspace/chipset_pipeline_release/opensource/component_code/vendor/huawei/extra/build/build_script/kirin_kernel_release/kernel/include/linux/seccomp.h"
	.file	137 "/mnt/disk/jenkins/ci/workspace/chipset_pipeline_release/opensource/component_code/vendor/huawei/extra/build/build_script/kirin_kernel_release/kernel/include/uapi/asm-generic/siginfo.h"
	.file	138 "/mnt/disk/jenkins/ci/workspace/chipset_pipeline_release/opensource/component_code/vendor/huawei/extra/build/build_script/kirin_kernel_release/kernel/include/linux/task_io_accounting.h"
	.file	139 "/mnt/disk/jenkins/ci/workspace/chipset_pipeline_release/opensource/component_code/vendor/huawei/extra/build/build_script/kirin_kernel_release/kernel/include/linux/nodemask.h"
	.file	140 "/mnt/disk/jenkins/ci/workspace/chipset_pipeline_release/opensource/component_code/vendor/huawei/extra/build/build_script/kirin_kernel_release/kernel/arch/arm64/include/asm/processor.h"
	.file	141 "/mnt/disk/jenkins/ci/workspace/chipset_pipeline_release/opensource/component_code/vendor/huawei/extra/build/build_script/kirin_kernel_release/kernel/block/hisi-bkops-core.c"
	.file	142 "/mnt/disk/jenkins/ci/workspace/chipset_pipeline_release/opensource/component_code/vendor/huawei/extra/build/build_script/kirin_kernel_release/kernel/arch/arm64/include/uapi/asm/ptrace.h"
	.file	143 "/mnt/disk/jenkins/ci/workspace/chipset_pipeline_release/opensource/component_code/vendor/huawei/extra/build/build_script/kirin_kernel_release/kernel/arch/arm64/include/asm/fpsimd.h"
	.file	144 "/mnt/disk/jenkins/ci/workspace/chipset_pipeline_release/opensource/component_code/vendor/huawei/extra/build/build_script/kirin_kernel_release/kernel/include/linux/hisi-bkops-core.h"
	.file	145 "/mnt/disk/jenkins/ci/workspace/chipset_pipeline_release/opensource/component_code/vendor/huawei/extra/build/build_script/kirin_kernel_release/kernel/include/linux/timekeeping.h"
	.file	146 "/mnt/disk/jenkins/ci/workspace/chipset_pipeline_release/opensource/component_code/vendor/huawei/extra/build/build_script/kirin_kernel_release/kernel/include/linux/stddef.h"
	.file	147 "/mnt/disk/jenkins/ci/workspace/chipset_pipeline_release/opensource/component_code/vendor/huawei/extra/build/build_script/kirin_kernel_release/kernel/include/linux/slab.h"
	.globl	bkops_idle_work_func    // -- Begin function bkops_idle_work_func
	.p2align	2
	.type	bkops_idle_work_func,@function
bkops_idle_work_func:                   // @bkops_idle_work_func
.Lfunc_begin0:
	.loc	5 206 0                 // kernel/block/hisi-bkops-core.c:206:0
	.cfi_sections .debug_frame
	.cfi_startproc
// %bb.0:
	//DEBUG_VALUE: bkops_idle_work_func:work <- $x0
	sub	sp, sp, #64             // =64
	stp	x22, x21, [sp, #16]     // 16-byte Folded Spill
	stp	x20, x19, [sp, #32]     // 16-byte Folded Spill
	stp	x29, x30, [sp, #48]     // 16-byte Folded Spill
	add	x29, sp, #48            // =48
	.cfi_def_cfa w29, 16
	.cfi_offset w30, -8
	.cfi_offset w29, -16
	.cfi_offset w19, -24
	.cfi_offset w20, -32
	.cfi_offset w21, -40
	.cfi_offset w22, -48
	adrp	x8, __stack_chk_guard
	ldr	x8, [x8, :lo12:__stack_chk_guard]
	mov	x19, x0
	str	x8, [sp, #8]
.Ltmp0:
	//DEBUG_VALUE: bkops_idle_work_func:bkops_status <- 0
	//DEBUG_VALUE: bkops_idle_work_func:work <- $x19
	.loc	5 207 6 prologue_end    // kernel/block/hisi-bkops-core.c:207:6
	str	wzr, [sp, #4]
.Ltmp1:
	//DEBUG_VALUE: hisi_bkops_query:ret <- 0
	//DEBUG_VALUE: hisi_bkops_query:bkops_status <- [DW_OP_plus_uconst 4] $sp
	//DEBUG_VALUE: hisi_bkops_query:bkops <- [DW_OP_constu 32, DW_OP_minus, DW_OP_stack_value] $x19
	//DEBUG_VALUE: bkops_idle_work_func:bkops_status <- [DW_OP_plus_uconst 4, DW_OP_deref] $sp
	//DEBUG_VALUE: bkops_idle_work_func:bkops <- [DW_OP_constu 32, DW_OP_minus, DW_OP_stack_value] $x19
	.loc	5 96 41                 // kernel/block/hisi-bkops-core.c:96:41
	ldur	x20, [x0, #-24]
.Ltmp2:
	//DEBUG_VALUE: hisi_bkops_query:bkops_ops_p <- $x20
	.loc	5 103 2                 // kernel/block/hisi-bkops-core.c:103:2
	adrp	x0, bkops_lock
	add	x0, x0, :lo12:bkops_lock
	bl	mutex_lock
.Ltmp3:
	.loc	5 104 7                 // kernel/block/hisi-bkops-core.c:104:7
	adrp	x21, bkops_enabled
	ldrb	w8, [x21, :lo12:bkops_enabled]
.Ltmp4:
	.loc	5 104 6 is_stmt 0       // kernel/block/hisi-bkops-core.c:104:6
	cmp	w8, #1                  // =1
	b.ne	.LBB0_2
.Ltmp5:
// %bb.1:
	//DEBUG_VALUE: hisi_bkops_query:bkops_ops_p <- $x20
	//DEBUG_VALUE: bkops_idle_work_func:bkops <- [DW_OP_constu 32, DW_OP_minus, DW_OP_stack_value] $x19
	//DEBUG_VALUE: bkops_idle_work_func:bkops_status <- [DW_OP_plus_uconst 4, DW_OP_deref] $sp
	//DEBUG_VALUE: hisi_bkops_query:bkops <- [DW_OP_constu 32, DW_OP_minus, DW_OP_stack_value] $x19
	//DEBUG_VALUE: hisi_bkops_query:bkops_status <- [DW_OP_plus_uconst 4] $sp
	//DEBUG_VALUE: bkops_idle_work_func:work <- $x19
	//DEBUG_LABEL: hisi_bkops_query:out
	.loc	5 137 2 is_stmt 1       // kernel/block/hisi-bkops-core.c:137:2
	adrp	x0, bkops_lock
	add	x0, x0, :lo12:bkops_lock
	bl	mutex_unlock
	b	.LBB0_8
.Ltmp6:
.LBB0_2:
	//DEBUG_VALUE: hisi_bkops_query:bkops_ops_p <- $x20
	//DEBUG_VALUE: bkops_idle_work_func:bkops <- [DW_OP_constu 32, DW_OP_minus, DW_OP_stack_value] $x19
	//DEBUG_VALUE: bkops_idle_work_func:bkops_status <- [DW_OP_plus_uconst 4, DW_OP_deref] $sp
	//DEBUG_VALUE: hisi_bkops_query:bkops <- [DW_OP_constu 32, DW_OP_minus, DW_OP_stack_value] $x19
	//DEBUG_VALUE: hisi_bkops_query:bkops_status <- [DW_OP_plus_uconst 4] $sp
	//DEBUG_VALUE: bkops_idle_work_func:work <- $x19
	.loc	5 116 21                // kernel/block/hisi-bkops-core.c:116:21
	ldr	x8, [x20, #8]
	.loc	5 117 10                // kernel/block/hisi-bkops-core.c:117:10
	ldur	x0, [x19, #-16]
	.loc	5 116 8                 // kernel/block/hisi-bkops-core.c:116:8
	add	x1, sp, #4              // =4
	blr	x8
.Ltmp7:
	.loc	5 118 6                 // kernel/block/hisi-bkops-core.c:118:6
	adrp	x8, user_manual_gc
	ldrb	w9, [x8, :lo12:user_manual_gc]
.Ltmp8:
	.loc	5 116 8                 // kernel/block/hisi-bkops-core.c:116:8
	mov	w20, w0
.Ltmp9:
	//DEBUG_VALUE: bkops_idle_work_func:ret <- $w20
	//DEBUG_VALUE: hisi_bkops_query:ret <- $w20
	.loc	5 118 21                // kernel/block/hisi-bkops-core.c:118:21
	cbz	w9, .LBB0_5
.Ltmp10:
// %bb.3:
	//DEBUG_VALUE: hisi_bkops_query:ret <- $w20
	//DEBUG_VALUE: bkops_idle_work_func:ret <- $w20
	//DEBUG_VALUE: bkops_idle_work_func:bkops <- [DW_OP_constu 32, DW_OP_minus, DW_OP_stack_value] $x19
	//DEBUG_VALUE: bkops_idle_work_func:bkops_status <- [DW_OP_plus_uconst 4, DW_OP_deref] $sp
	//DEBUG_VALUE: hisi_bkops_query:bkops <- [DW_OP_constu 32, DW_OP_minus, DW_OP_stack_value] $x19
	//DEBUG_VALUE: hisi_bkops_query:bkops_status <- [DW_OP_plus_uconst 4] $sp
	//DEBUG_VALUE: bkops_idle_work_func:work <- $x19
	.loc	5 0 0 is_stmt 0         // kernel/block/hisi-bkops-core.c:0:0
	ldr	w9, [sp, #4]
	.loc	5 118 21                // kernel/block/hisi-bkops-core.c:118:21
	cbnz	w9, .LBB0_5
.Ltmp11:
// %bb.4:
	//DEBUG_VALUE: hisi_bkops_query:ret <- $w20
	//DEBUG_VALUE: bkops_idle_work_func:ret <- $w20
	//DEBUG_VALUE: bkops_idle_work_func:bkops <- [DW_OP_constu 32, DW_OP_minus, DW_OP_stack_value] $x19
	//DEBUG_VALUE: bkops_idle_work_func:bkops_status <- [DW_OP_plus_uconst 4, DW_OP_deref] $sp
	//DEBUG_VALUE: hisi_bkops_query:bkops <- [DW_OP_constu 32, DW_OP_minus, DW_OP_stack_value] $x19
	//DEBUG_VALUE: hisi_bkops_query:bkops_status <- [DW_OP_plus_uconst 4] $sp
	//DEBUG_VALUE: bkops_idle_work_func:work <- $x19
	.loc	5 119 18 is_stmt 1      // kernel/block/hisi-bkops-core.c:119:18
	strb	wzr, [x8, :lo12:user_manual_gc]
.Ltmp12:
.LBB0_5:
	//DEBUG_VALUE: hisi_bkops_query:ret <- $w20
	//DEBUG_VALUE: bkops_idle_work_func:ret <- $w20
	//DEBUG_VALUE: bkops_idle_work_func:bkops <- [DW_OP_constu 32, DW_OP_minus, DW_OP_stack_value] $x19
	//DEBUG_VALUE: bkops_idle_work_func:bkops_status <- [DW_OP_plus_uconst 4, DW_OP_deref] $sp
	//DEBUG_VALUE: hisi_bkops_query:bkops <- [DW_OP_constu 32, DW_OP_minus, DW_OP_stack_value] $x19
	//DEBUG_VALUE: hisi_bkops_query:bkops_status <- [DW_OP_plus_uconst 4] $sp
	//DEBUG_VALUE: bkops_idle_work_func:work <- $x19
	//DEBUG_LABEL: hisi_bkops_query:out
	.loc	5 137 2                 // kernel/block/hisi-bkops-core.c:137:2
	adrp	x0, bkops_lock
	add	x0, x0, :lo12:bkops_lock
	bl	mutex_unlock
.Ltmp13:
	.loc	5 213 6                 // kernel/block/hisi-bkops-core.c:213:6
	cbz	w20, .LBB0_8
.Ltmp14:
// %bb.6:
	//DEBUG_VALUE: bkops_idle_work_func:ret <- $w20
	//DEBUG_VALUE: bkops_idle_work_func:bkops <- [DW_OP_constu 32, DW_OP_minus, DW_OP_stack_value] $x19
	//DEBUG_VALUE: bkops_idle_work_func:bkops_status <- [DW_OP_plus_uconst 4, DW_OP_deref] $sp
	//DEBUG_VALUE: bkops_idle_work_func:work <- $x19
	.loc	5 214 3                 // kernel/block/hisi-bkops-core.c:214:3
	adrp	x0, .L.str
	add	x0, x0, :lo12:.L.str
.Ltmp15:
.LBB0_7:
	.loc	5 0 0 is_stmt 0         // kernel/block/hisi-bkops-core.c:0:0
	bl	printk
	b	.LBB0_15
.LBB0_8:
.Ltmp16:
	//DEBUG_VALUE: bkops_idle_work_func:bkops <- [DW_OP_constu 32, DW_OP_minus, DW_OP_stack_value] $x19
	//DEBUG_VALUE: bkops_idle_work_func:bkops_status <- [DW_OP_plus_uconst 4, DW_OP_deref] $sp
	//DEBUG_VALUE: bkops_idle_work_func:work <- $x19
	//DEBUG_VALUE: test_bit:addr <- undef
	.loc	5 217 20 is_stmt 1      // kernel/block/hisi-bkops-core.c:217:20
	mov	x20, x19
	ldr	x8, [x20, #96]!
	and	x8, x8, #0xfffffffffffffffd
	str	x8, [x20]
	.loc	5 220 24                // kernel/block/hisi-bkops-core.c:220:24
	ldr	w8, [sp, #4]
.Ltmp17:
	//DEBUG_VALUE: bkops_idle_work_func:bkops_status <- $w8
	.loc	5 220 22 is_stmt 0      // kernel/block/hisi-bkops-core.c:220:22
	str	w8, [x20, #72]
	cbz	w8, .LBB0_15
.Ltmp18:
// %bb.9:
	//DEBUG_VALUE: bkops_idle_work_func:bkops_status <- $w8
	//DEBUG_VALUE: bkops_idle_work_func:bkops <- [DW_OP_constu 32, DW_OP_minus, DW_OP_stack_value] $x19
	//DEBUG_VALUE: bkops_idle_work_func:work <- $x19
	//DEBUG_VALUE: test_bit:nr <- 1
	.file	148 "/mnt/disk/jenkins/ci/workspace/chipset_pipeline_release/opensource/component_code/vendor/huawei/extra/build/build_script/kirin_kernel_release/kernel/include/asm-generic/bitops/non-atomic.h"
	.loc	148 106 16 is_stmt 1    // kernel/include/asm-generic/bitops/non-atomic.h:106:16
	ldr	x8, [x20]
.Ltmp19:
	.loc	148 0 16 is_stmt 0      // kernel/include/asm-generic/bitops/non-atomic.h:0:16
	tbnz	w8, #1, .LBB0_15
.Ltmp20:
// %bb.10:
	//DEBUG_VALUE: bkops_idle_work_func:bkops <- [DW_OP_constu 32, DW_OP_minus, DW_OP_stack_value] $x19
	//DEBUG_VALUE: bkops_idle_work_func:work <- $x19
	//DEBUG_VALUE: hisi_bkops_start:bkops <- [DW_OP_constu 32, DW_OP_minus, DW_OP_stack_value] $x19
	//DEBUG_VALUE: hisi_bkops_start:ret <- 0
	.loc	5 144 41 is_stmt 1      // kernel/block/hisi-bkops-core.c:144:41
	ldur	x22, [x19, #-24]
.Ltmp21:
	//DEBUG_VALUE: hisi_bkops_start:bkops_ops_p <- $x22
	.loc	5 154 2                 // kernel/block/hisi-bkops-core.c:154:2
	adrp	x0, bkops_lock
	add	x0, x0, :lo12:bkops_lock
	bl	mutex_lock
.Ltmp22:
	.loc	5 155 7                 // kernel/block/hisi-bkops-core.c:155:7
	ldrb	w8, [x21, :lo12:bkops_enabled]
.Ltmp23:
	.loc	5 155 6 is_stmt 0       // kernel/block/hisi-bkops-core.c:155:6
	cmp	w8, #1                  // =1
	b.ne	.LBB0_12
.Ltmp24:
// %bb.11:
	//DEBUG_VALUE: hisi_bkops_start:bkops_ops_p <- $x22
	//DEBUG_VALUE: hisi_bkops_start:bkops <- [DW_OP_constu 32, DW_OP_minus, DW_OP_stack_value] $x19
	//DEBUG_VALUE: bkops_idle_work_func:bkops <- [DW_OP_constu 32, DW_OP_minus, DW_OP_stack_value] $x19
	//DEBUG_VALUE: bkops_idle_work_func:work <- $x19
	//DEBUG_LABEL: hisi_bkops_start:out
	.loc	5 177 2 is_stmt 1       // kernel/block/hisi-bkops-core.c:177:2
	adrp	x0, bkops_lock
	add	x0, x0, :lo12:bkops_lock
	bl	mutex_unlock
	b	.LBB0_14
.Ltmp25:
.LBB0_12:
	//DEBUG_VALUE: hisi_bkops_start:bkops_ops_p <- $x22
	//DEBUG_VALUE: hisi_bkops_start:bkops <- [DW_OP_constu 32, DW_OP_minus, DW_OP_stack_value] $x19
	//DEBUG_VALUE: bkops_idle_work_func:bkops <- [DW_OP_constu 32, DW_OP_minus, DW_OP_stack_value] $x19
	//DEBUG_VALUE: bkops_idle_work_func:work <- $x19
	.loc	5 158 21                // kernel/block/hisi-bkops-core.c:158:21
	ldr	x8, [x22]
	.loc	5 158 45 is_stmt 0      // kernel/block/hisi-bkops-core.c:158:45
	ldur	x0, [x19, #-16]
	.loc	5 158 8                 // kernel/block/hisi-bkops-core.c:158:8
	orr	w1, wzr, #0x1
	blr	x8
	mov	w19, w0
.Ltmp26:
	//DEBUG_LABEL: hisi_bkops_start:out
	//DEBUG_VALUE: hisi_bkops_start:ret <- $w19
	//DEBUG_VALUE: bkops_idle_work_func:ret <- $w19
	.loc	5 177 2 is_stmt 1       // kernel/block/hisi-bkops-core.c:177:2
	adrp	x0, bkops_lock
	add	x0, x0, :lo12:bkops_lock
	bl	mutex_unlock
.Ltmp27:
	.loc	5 224 7                 // kernel/block/hisi-bkops-core.c:224:7
	cbz	w19, .LBB0_14
.Ltmp28:
// %bb.13:
	//DEBUG_VALUE: bkops_idle_work_func:ret <- $w19
	.loc	5 225 4                 // kernel/block/hisi-bkops-core.c:225:4
	adrp	x0, .L.str.1
	add	x0, x0, :lo12:.L.str.1
	b	.LBB0_7
.Ltmp29:
.LBB0_14:
	.loc	5 227 4                 // kernel/block/hisi-bkops-core.c:227:4
	orr	w0, wzr, #0x1
	mov	x1, x20
	bl	set_bit
.Ltmp30:
.LBB0_15:
	.loc	5 0 4 is_stmt 0         // kernel/block/hisi-bkops-core.c:0:4
	adrp	x9, __stack_chk_guard
	ldr	x8, [sp, #8]
	ldr	x9, [x9, :lo12:__stack_chk_guard]
	cmp	x9, x8
	b.ne	.LBB0_17
// %bb.16:
	.loc	5 229 1 is_stmt 1       // kernel/block/hisi-bkops-core.c:229:1
	ldp	x29, x30, [sp, #48]     // 16-byte Folded Reload
	ldp	x20, x19, [sp, #32]     // 16-byte Folded Reload
	ldp	x22, x21, [sp, #16]     // 16-byte Folded Reload
	add	sp, sp, #64             // =64
	ret
.Ltmp31:
.LBB0_17:
	.loc	5 0 1 is_stmt 0         // kernel/block/hisi-bkops-core.c:0:1
	bl	__stack_chk_fail
.Lfunc_end0:
	.size	bkops_idle_work_func, .Lfunc_end0-bkops_idle_work_func
	.cfi_endproc
                                        // -- End function
	.globl	bkops_io_busyidle_notify_handler // -- Begin function bkops_io_busyidle_notify_handler
	.p2align	2
	.type	bkops_io_busyidle_notify_handler,@function
bkops_io_busyidle_notify_handler:       // @bkops_io_busyidle_notify_handler
.Lfunc_begin1:
	.loc	5 312 0 is_stmt 1       // kernel/block/hisi-bkops-core.c:312:0
	.cfi_startproc
// %bb.0:
	//DEBUG_VALUE: bkops_io_busyidle_notify_handler:event_node <- $x0
	//DEBUG_VALUE: bkops_io_busyidle_notify_handler:event_node <- $x0
	//DEBUG_VALUE: bkops_io_busyidle_notify_handler:state <- $w1
	str	x21, [sp, #-48]!        // 8-byte Folded Spill
	stp	x20, x19, [sp, #16]     // 16-byte Folded Spill
	stp	x29, x30, [sp, #32]     // 16-byte Folded Spill
	add	x29, sp, #32            // =32
	.cfi_def_cfa w29, 16
	.cfi_offset w30, -8
	.cfi_offset w29, -16
	.cfi_offset w19, -24
	.cfi_offset w20, -32
	.cfi_offset w21, -48
.Ltmp32:
	//DEBUG_VALUE: bkops_io_busyidle_notify_handler:ret <- 0
	.loc	5 318 37 prologue_end   // kernel/block/hisi-bkops-core.c:318:37
	ldr	x21, [x0, #40]
.Ltmp33:
	//DEBUG_VALUE: bkops_io_busyidle_notify_handler:bkops <- $x21
	//DEBUG_VALUE: bkops_should_query:bkops <- $x21
	//DEBUG_VALUE: bkops_strategy:bkops <- $x21
	//DEBUG_VALUE: hisi_bkops_stop:bkops <- $x21
	.loc	5 320 2                 // kernel/block/hisi-bkops-core.c:320:2
	cbz	w1, .LBB1_15
.Ltmp34:
// %bb.1:
	//DEBUG_VALUE: bkops_io_busyidle_notify_handler:bkops <- $x21
	//DEBUG_VALUE: bkops_io_busyidle_notify_handler:state <- $w1
	//DEBUG_VALUE: bkops_io_busyidle_notify_handler:event_node <- $x0
	.loc	5 0 2 is_stmt 0         // kernel/block/hisi-bkops-core.c:0:2
	mov	w19, w1
.Ltmp35:
	//DEBUG_VALUE: bkops_io_busyidle_notify_handler:state <- $w19
	.loc	5 320 2                 // kernel/block/hisi-bkops-core.c:320:2
	cmp	w1, #1                  // =1
	b.ne	.LBB1_20
.Ltmp36:
// %bb.2:
	//DEBUG_VALUE: bkops_io_busyidle_notify_handler:state <- $w19
	//DEBUG_VALUE: bkops_io_busyidle_notify_handler:bkops <- $x21
	//DEBUG_VALUE: bkops_io_busyidle_notify_handler:event_node <- $x0
	.loc	5 282 13 is_stmt 1      // kernel/block/hisi-bkops-core.c:282:13
	mov	x19, x21
.Ltmp37:
	ldr	x8, [x19, #128]!
.Ltmp38:
	.loc	5 282 6 is_stmt 0       // kernel/block/hisi-bkops-core.c:282:6
	tbnz	w8, #1, .LBB1_25
.Ltmp39:
// %bb.3:
	//DEBUG_VALUE: bkops_io_busyidle_notify_handler:bkops <- $x21
	//DEBUG_VALUE: bkops_io_busyidle_notify_handler:event_node <- $x0
	.loc	5 285 13 is_stmt 1      // kernel/block/hisi-bkops-core.c:285:13
	ldr	w9, [x21, #204]
	.loc	5 285 28 is_stmt 0      // kernel/block/hisi-bkops-core.c:285:28
	cbz	w9, .LBB1_5
.Ltmp40:
// %bb.4:
	//DEBUG_VALUE: bkops_io_busyidle_notify_handler:bkops <- $x21
	//DEBUG_VALUE: bkops_io_busyidle_notify_handler:event_node <- $x0
	.loc	5 285 38                // kernel/block/hisi-bkops-core.c:285:38
	ldr	w9, [x21, #200]
.Ltmp41:
	.loc	5 285 6                 // kernel/block/hisi-bkops-core.c:285:6
	cbnz	w9, .LBB1_25
.Ltmp42:
.LBB1_5:
	//DEBUG_VALUE: bkops_io_busyidle_notify_handler:bkops <- $x21
	//DEBUG_VALUE: bkops_io_busyidle_notify_handler:event_node <- $x0
	.loc	5 233 52 is_stmt 1      // kernel/block/hisi-bkops-core.c:233:52
	ldr	x0, [x21, #24]
.Ltmp43:
	.loc	5 233 28 is_stmt 0      // kernel/block/hisi-bkops-core.c:233:28
	bl	hisi_blk_get_lld
.Ltmp44:
	.loc	5 236 13 is_stmt 1      // kernel/block/hisi-bkops-core.c:236:13
	ldr	x8, [x21, #128]
.Ltmp45:
	.loc	5 233 28                // kernel/block/hisi-bkops-core.c:233:28
	mov	x20, x0
.Ltmp46:
	//DEBUG_VALUE: bkops_strategy:lld <- $x20
	.loc	5 236 6                 // kernel/block/hisi-bkops-core.c:236:6
	tbz	w8, #4, .LBB1_9
.Ltmp47:
// %bb.6:
	//DEBUG_VALUE: bkops_strategy:lld <- $x20
	//DEBUG_VALUE: bkops_io_busyidle_notify_handler:bkops <- $x21
	//DEBUG_VALUE: bkops_strategy:tp <- [DW_OP_deref] undef
	//DEBUG_VALUE: get_monotonic_boottime:ts <- undef
	.loc	145 197 9               // kernel/include/linux/timekeeping.h:197:9
	orr	w0, wzr, #0x1
	bl	ktime_get_with_offset
.Ltmp48:
	.loc	145 250 8               // kernel/include/linux/timekeeping.h:250:8
	bl	ns_to_timespec
.Ltmp49:
	.loc	5 238 7                 // kernel/block/hisi-bkops-core.c:238:7
	ldr	x8, [x21, #216]
	.loc	5 238 47 is_stmt 0      // kernel/block/hisi-bkops-core.c:238:47
	cbz	x8, .LBB1_27
.Ltmp50:
// %bb.7:
	//DEBUG_VALUE: bkops_strategy:lld <- $x20
	//DEBUG_VALUE: bkops_io_busyidle_notify_handler:bkops <- $x21
	.loc	5 239 4 is_stmt 1       // kernel/block/hisi-bkops-core.c:239:4
	ldr	x9, [x21, #208]
	sub	x8, x0, x8
.Ltmp51:
	.loc	5 238 7                 // kernel/block/hisi-bkops-core.c:238:7
	cmp	x8, x9
	b.ge	.LBB1_27
.Ltmp52:
// %bb.8:
	//DEBUG_VALUE: bkops_strategy:lld <- $x20
	//DEBUG_VALUE: bkops_io_busyidle_notify_handler:bkops <- $x21
	.loc	5 249 14                // kernel/block/hisi-bkops-core.c:249:14
	ldr	x8, [x19]
.Ltmp53:
.LBB1_9:
	//DEBUG_VALUE: bkops_strategy:lld <- $x20
	//DEBUG_VALUE: bkops_io_busyidle_notify_handler:bkops <- $x21
	.loc	5 249 51 is_stmt 0      // kernel/block/hisi-bkops-core.c:249:51
	tbz	w8, #3, .LBB1_11
.Ltmp54:
// %bb.10:
	//DEBUG_VALUE: bkops_strategy:lld <- $x20
	//DEBUG_VALUE: bkops_io_busyidle_notify_handler:bkops <- $x21
	.loc	5 250 10 is_stmt 1      // kernel/block/hisi-bkops-core.c:250:10
	ldr	x9, [x20, #456]
	.loc	5 250 31 is_stmt 0      // kernel/block/hisi-bkops-core.c:250:31
	ldp	x11, x10, [x21, #224]
	.loc	5 250 22                // kernel/block/hisi-bkops-core.c:250:22
	sub	x10, x9, x10
.Ltmp55:
	.loc	5 249 6 is_stmt 1       // kernel/block/hisi-bkops-core.c:249:6
	cmp	x10, x11
	b.hs	.LBB1_23
.Ltmp56:
.LBB1_11:
	//DEBUG_VALUE: bkops_strategy:lld <- $x20
	//DEBUG_VALUE: bkops_io_busyidle_notify_handler:bkops <- $x21
	.loc	5 259 49                // kernel/block/hisi-bkops-core.c:259:49
	tbz	w8, #2, .LBB1_13
.Ltmp57:
// %bb.12:
	//DEBUG_VALUE: bkops_strategy:lld <- $x20
	//DEBUG_VALUE: bkops_io_busyidle_notify_handler:bkops <- $x21
	.loc	5 260 10                // kernel/block/hisi-bkops-core.c:260:10
	ldr	x9, [x20, #448]
	.loc	5 260 29 is_stmt 0      // kernel/block/hisi-bkops-core.c:260:29
	ldp	x11, x10, [x21, #240]
	.loc	5 260 20                // kernel/block/hisi-bkops-core.c:260:20
	sub	x10, x9, x10
.Ltmp58:
	.loc	5 259 6 is_stmt 1       // kernel/block/hisi-bkops-core.c:259:6
	cmp	x10, x11
	b.hs	.LBB1_24
.Ltmp59:
.LBB1_13:
	//DEBUG_VALUE: bkops_io_busyidle_notify_handler:bkops <- $x21
	.loc	5 295 6                 // kernel/block/hisi-bkops-core.c:295:6
	adrp	x9, user_manual_gc
	ldrb	w9, [x9, :lo12:user_manual_gc]
.Ltmp60:
	.loc	5 292 6                 // kernel/block/hisi-bkops-core.c:292:6
	cbnz	w9, .LBB1_25
.Ltmp61:
// %bb.14:
	//DEBUG_VALUE: bkops_io_busyidle_notify_handler:bkops <- $x21
	.loc	5 301 20                // kernel/block/hisi-bkops-core.c:301:20
	and	x8, x8, #0xfffffffffffffffd
.Ltmp62:
	.loc	5 0 0 is_stmt 0         // kernel/block/hisi-bkops-core.c:0:0
	mov	w0, wzr
.Ltmp63:
	str	x8, [x19]
	b	.LBB1_26
.Ltmp64:
.LBB1_15:
	//DEBUG_VALUE: bkops_io_busyidle_notify_handler:bkops <- $x21
	//DEBUG_VALUE: bkops_io_busyidle_notify_handler:state <- $w1
	//DEBUG_VALUE: bkops_io_busyidle_notify_handler:event_node <- $x0
	.loc	5 331 42 is_stmt 1      // kernel/block/hisi-bkops-core.c:331:42
	add	x19, x21, #128          // =128
.Ltmp65:
	//DEBUG_VALUE: test_bit:addr <- $x19
	.loc	5 330 8                 // kernel/block/hisi-bkops-core.c:330:8
	orr	w0, wzr, #0x20
.Ltmp66:
	mov	x1, x19
.Ltmp67:
	bl	test_and_clear_bit
.Ltmp68:
	.loc	5 330 7 is_stmt 0       // kernel/block/hisi-bkops-core.c:330:7
	cbz	w0, .LBB1_26
.Ltmp69:
// %bb.16:
	//DEBUG_VALUE: test_bit:addr <- $x19
	//DEBUG_VALUE: bkops_io_busyidle_notify_handler:bkops <- $x21
	.loc	5 334 36 is_stmt 1      // kernel/block/hisi-bkops-core.c:334:36
	add	x0, x21, #32            // =32
	.loc	5 334 3 is_stmt 0       // kernel/block/hisi-bkops-core.c:334:3
	bl	cancel_delayed_work_sync
.Ltmp70:
	//DEBUG_VALUE: test_bit:nr <- 1
	.loc	148 106 16 is_stmt 1    // kernel/include/asm-generic/bitops/non-atomic.h:106:16
	ldr	x8, [x21, #128]
.Ltmp71:
	.loc	5 342 7                 // kernel/block/hisi-bkops-core.c:342:7
	tbz	w8, #1, .LBB1_22
.Ltmp72:
// %bb.17:
	//DEBUG_VALUE: bkops_io_busyidle_notify_handler:bkops <- $x21
	.loc	5 192 2                 // kernel/block/hisi-bkops-core.c:192:2
	adrp	x0, bkops_lock
	add	x0, x0, :lo12:bkops_lock
	bl	mutex_lock
.Ltmp73:
	.loc	5 193 7                 // kernel/block/hisi-bkops-core.c:193:7
	adrp	x8, bkops_enabled
	ldrb	w8, [x8, :lo12:bkops_enabled]
.Ltmp74:
	.loc	5 193 6 is_stmt 0       // kernel/block/hisi-bkops-core.c:193:6
	tbnz	w8, #0, .LBB1_19
.Ltmp75:
// %bb.18:
	//DEBUG_VALUE: bkops_io_busyidle_notify_handler:bkops <- $x21
	.loc	5 196 9 is_stmt 1       // kernel/block/hisi-bkops-core.c:196:9
	ldp	x8, x0, [x21, #8]
	.loc	5 196 2 is_stmt 0       // kernel/block/hisi-bkops-core.c:196:2
	mov	w1, wzr
	.loc	5 196 20                // kernel/block/hisi-bkops-core.c:196:20
	ldr	x8, [x8]
	.loc	5 196 2                 // kernel/block/hisi-bkops-core.c:196:2
	blr	x8
.Ltmp76:
.LBB1_19:
	//DEBUG_VALUE: bkops_io_busyidle_notify_handler:bkops <- $x21
	//DEBUG_LABEL: hisi_bkops_stop:out
	.loc	5 202 2 is_stmt 1       // kernel/block/hisi-bkops-core.c:202:2
	adrp	x0, bkops_lock
	add	x0, x0, :lo12:bkops_lock
	bl	mutex_unlock
.Ltmp77:
	.loc	5 344 4                 // kernel/block/hisi-bkops-core.c:344:4
	orr	w0, wzr, #0x1
	mov	x1, x19
	bl	clear_bit
	b	.LBB1_22
.Ltmp78:
.LBB1_20:
	//DEBUG_VALUE: bkops_io_busyidle_notify_handler:state <- $w19
	//DEBUG_VALUE: bkops_io_busyidle_notify_handler:bkops <- $x21
	//DEBUG_VALUE: bkops_io_busyidle_notify_handler:event_node <- $x0
	.loc	5 349 3                 // kernel/block/hisi-bkops-core.c:349:3
	adrp	x0, bkops_io_busyidle_notify_handler._rs
.Ltmp79:
	adrp	x1, .L__func__.bkops_io_busyidle_notify_handler
	add	x0, x0, :lo12:bkops_io_busyidle_notify_handler._rs
	add	x1, x1, :lo12:.L__func__.bkops_io_busyidle_notify_handler
	bl	___ratelimit
.Ltmp80:
	.loc	5 349 3 is_stmt 0       // kernel/block/hisi-bkops-core.c:349:3
	cbz	w0, .LBB1_26
.Ltmp81:
// %bb.21:
	//DEBUG_VALUE: bkops_io_busyidle_notify_handler:state <- $w19
	//DEBUG_VALUE: bkops_io_busyidle_notify_handler:bkops <- $x21
	.loc	5 349 3                 // kernel/block/hisi-bkops-core.c:349:3
	adrp	x0, .L.str.2
	adrp	x1, .L__func__.bkops_io_busyidle_notify_handler
	add	x0, x0, :lo12:.L.str.2
	add	x1, x1, :lo12:.L__func__.bkops_io_busyidle_notify_handler
	mov	w2, w19
	bl	printk
.Ltmp82:
.LBB1_22:
	//DEBUG_VALUE: bkops_io_busyidle_notify_handler:bkops <- $x21
	.loc	5 0 0                   // kernel/block/hisi-bkops-core.c:0:0
	mov	w0, wzr
	b	.LBB1_26
.Ltmp83:
.LBB1_23:
	//DEBUG_VALUE: bkops_strategy:lld <- $x20
	//DEBUG_VALUE: bkops_io_busyidle_notify_handler:bkops <- $x21
	.loc	5 252 27 is_stmt 1      // kernel/block/hisi-bkops-core.c:252:27
	str	x9, [x21, #232]
	b	.LBB1_25
.Ltmp84:
.LBB1_24:
	//DEBUG_VALUE: bkops_strategy:lld <- $x20
	//DEBUG_VALUE: bkops_io_busyidle_notify_handler:bkops <- $x21
	.loc	5 262 25                // kernel/block/hisi-bkops-core.c:262:25
	str	x9, [x21, #248]
.Ltmp85:
.LBB1_25:
	//DEBUG_VALUE: bkops_io_busyidle_notify_handler:bkops <- $x21
	//DEBUG_LABEL: bkops_should_query:query_needed
	.loc	5 305 20                // kernel/block/hisi-bkops-core.c:305:20
	orr	x8, x8, #0x2
.Ltmp86:
	.loc	5 324 3                 // kernel/block/hisi-bkops-core.c:324:3
	orr	w0, wzr, #0x20
	mov	x1, x19
.Ltmp87:
	.loc	5 0 0 is_stmt 0         // kernel/block/hisi-bkops-core.c:0:0
	str	x8, [x21, #128]
.Ltmp88:
	.loc	5 324 3                 // kernel/block/hisi-bkops-core.c:324:3
	bl	set_bit
	.loc	5 325 22 is_stmt 1      // kernel/block/hisi-bkops-core.c:325:22
	adrp	x8, bkops_workqueue_g
	.loc	5 326 28                // kernel/block/hisi-bkops-core.c:326:28
	ldr	w0, [x21, #136]
	.loc	5 325 22                // kernel/block/hisi-bkops-core.c:325:22
	ldr	x19, [x8, :lo12:bkops_workqueue_g]
	.loc	5 325 49 is_stmt 0      // kernel/block/hisi-bkops-core.c:325:49
	add	x20, x21, #32           // =32
.Ltmp89:
	//DEBUG_VALUE: msecs_to_jiffies:m <- $w0
	.file	149 "/mnt/disk/jenkins/ci/workspace/chipset_pipeline_release/opensource/component_code/vendor/huawei/extra/build/build_script/kirin_kernel_release/kernel/include/linux/jiffies.h"
	.loc	149 370 10 is_stmt 1    // kernel/include/linux/jiffies.h:370:10
	bl	__msecs_to_jiffies
.Ltmp90:
	mov	x3, x0
.Ltmp91:
	//DEBUG_VALUE: queue_delayed_work:delay <- $x3
	//DEBUG_VALUE: queue_delayed_work:dwork <- $x20
	//DEBUG_VALUE: queue_delayed_work:wq <- $x19
	.loc	53 506 9                // kernel/include/linux/workqueue.h:506:9
	orr	w0, wzr, #0x8
	mov	x1, x19
	mov	x2, x20
	bl	queue_delayed_work_on
.Ltmp92:
	.loc	53 0 9 is_stmt 0        // kernel/include/linux/workqueue.h:0:9
	orr	w0, wzr, #0x1
.Ltmp93:
	//DEBUG_VALUE: bkops_io_busyidle_notify_handler:ret <- 1
.LBB1_26:
	//DEBUG_VALUE: bkops_io_busyidle_notify_handler:bkops <- $x21
	//DEBUG_VALUE: bkops_io_busyidle_notify_handler:ret <- $w0
	.loc	5 353 2 is_stmt 1       // kernel/block/hisi-bkops-core.c:353:2
	ldp	x29, x30, [sp, #32]     // 16-byte Folded Reload
	ldp	x20, x19, [sp, #16]     // 16-byte Folded Reload
	ldr	x21, [sp], #48          // 8-byte Folded Reload
.Ltmp94:
	ret
.Ltmp95:
.LBB1_27:
	//DEBUG_VALUE: bkops_strategy:lld <- $x20
	//DEBUG_VALUE: bkops_io_busyidle_notify_handler:bkops <- $x21
	.loc	5 305 20                // kernel/block/hisi-bkops-core.c:305:20
	ldr	x8, [x21, #128]
.Ltmp96:
	.loc	5 241 33                // kernel/block/hisi-bkops-core.c:241:33
	str	x0, [x21, #216]
	b	.LBB1_25
.Ltmp97:
.Lfunc_end1:
	.size	bkops_io_busyidle_notify_handler, .Lfunc_end1-bkops_io_busyidle_notify_handler
	.cfi_endproc
                                        // -- End function
	.globl	bkops_pm_callback       // -- Begin function bkops_pm_callback
	.p2align	2
	.type	bkops_pm_callback,@function
bkops_pm_callback:                      // @bkops_pm_callback
.Lfunc_begin2:
	.loc	5 373 0                 // kernel/block/hisi-bkops-core.c:373:0
	.cfi_startproc
// %bb.0:
	//DEBUG_VALUE: bkops_pm_callback:self <- $x0
	//DEBUG_VALUE: bkops_pm_callback:action <- $x1
	//DEBUG_VALUE: bkops_pm_callback:action <- $x1
	//DEBUG_VALUE: bkops_pm_callback:ptr <- $x2
	stp	x20, x19, [sp, #-32]!   // 16-byte Folded Spill
	stp	x29, x30, [sp, #16]     // 16-byte Folded Spill
	add	x29, sp, #16            // =16
	.cfi_def_cfa w29, 16
	.cfi_offset w30, -8
	.cfi_offset w29, -16
	.cfi_offset w19, -24
	.cfi_offset w20, -32
.Ltmp98:
	.loc	5 374 2 prologue_end    // kernel/block/hisi-bkops-core.c:374:2
	sub	x8, x1, #1              // =1
	cmp	x8, #3                  // =3
	b.hi	.LBB2_4
.Ltmp99:
// %bb.1:
	//DEBUG_VALUE: bkops_pm_callback:ptr <- $x2
	//DEBUG_VALUE: bkops_pm_callback:action <- $x1
	//DEBUG_VALUE: bkops_pm_callback:self <- $x0
	.loc	5 0 2 is_stmt 0         // kernel/block/hisi-bkops-core.c:0:2
	adrp	x9, .LJTI2_0
	add	x9, x9, :lo12:.LJTI2_0
	adr	x10, .LBB2_2
	ldrb	w11, [x9, x8]
	add	x10, x10, x11, lsl #2
	br	x10
.Ltmp100:
.LBB2_2:
	//DEBUG_VALUE: bkops_pm_callback:ptr <- $x2
	//DEBUG_VALUE: bkops_pm_callback:action <- $x1
	//DEBUG_VALUE: bkops_pm_callback:self <- $x0
	.loc	5 358 2 is_stmt 1       // kernel/block/hisi-bkops-core.c:358:2
	adrp	x20, bkops_lock
	add	x20, x20, :lo12:bkops_lock
	mov	x0, x20
.Ltmp101:
	bl	mutex_lock
.Ltmp102:
	.loc	5 359 16                // kernel/block/hisi-bkops-core.c:359:16
	adrp	x8, bkops_enabled
	orr	w19, wzr, #0x1
	.loc	5 360 2                 // kernel/block/hisi-bkops-core.c:360:2
	mov	x0, x20
	.loc	5 359 16                // kernel/block/hisi-bkops-core.c:359:16
	strb	w19, [x8, :lo12:bkops_enabled]
	.loc	5 360 2                 // kernel/block/hisi-bkops-core.c:360:2
	bl	mutex_unlock
	b	.LBB2_5
.Ltmp103:
.LBB2_3:
	//DEBUG_VALUE: bkops_pm_callback:ptr <- $x2
	//DEBUG_VALUE: bkops_pm_callback:action <- $x1
	//DEBUG_VALUE: bkops_pm_callback:self <- $x0
	.loc	5 365 2                 // kernel/block/hisi-bkops-core.c:365:2
	adrp	x19, bkops_lock
	add	x19, x19, :lo12:bkops_lock
	mov	x0, x19
.Ltmp104:
	bl	mutex_lock
.Ltmp105:
	.loc	5 366 16                // kernel/block/hisi-bkops-core.c:366:16
	adrp	x8, bkops_enabled
	.loc	5 367 2                 // kernel/block/hisi-bkops-core.c:367:2
	mov	x0, x19
	.loc	5 366 16                // kernel/block/hisi-bkops-core.c:366:16
	strb	wzr, [x8, :lo12:bkops_enabled]
	.loc	5 367 2                 // kernel/block/hisi-bkops-core.c:367:2
	bl	mutex_unlock
	orr	w19, wzr, #0x1
	b	.LBB2_5
.Ltmp106:
.LBB2_4:
	//DEBUG_VALUE: bkops_pm_callback:ptr <- $x2
	//DEBUG_VALUE: bkops_pm_callback:action <- $x1
	//DEBUG_VALUE: bkops_pm_callback:self <- $x0
	.loc	5 0 0 is_stmt 0         // kernel/block/hisi-bkops-core.c:0:0
	mov	w19, wzr
.Ltmp107:
.LBB2_5:
	.loc	5 390 1 is_stmt 1       // kernel/block/hisi-bkops-core.c:390:1
	ldp	x29, x30, [sp, #16]     // 16-byte Folded Reload
	mov	w0, w19
	ldp	x20, x19, [sp], #32     // 16-byte Folded Reload
	ret
.Ltmp108:
.Lfunc_end2:
	.size	bkops_pm_callback, .Lfunc_end2-bkops_pm_callback
	.cfi_endproc
	.section	.rodata,"a",@progbits
.LJTI2_0:
	.byte	(.LBB2_2-.LBB2_2)>>2
	.byte	(.LBB2_3-.LBB2_2)>>2
	.byte	(.LBB2_2-.LBB2_2)>>2
	.byte	(.LBB2_3-.LBB2_2)>>2
                                        // -- End function
	.text
	.globl	bkops_notify_reboot     // -- Begin function bkops_notify_reboot
	.p2align	2
	.type	bkops_notify_reboot,@function
bkops_notify_reboot:                    // @bkops_notify_reboot
.Lfunc_begin3:
	.loc	5 395 0                 // kernel/block/hisi-bkops-core.c:395:0
	.cfi_startproc
// %bb.0:
	//DEBUG_VALUE: bkops_notify_reboot:self <- $x0
	//DEBUG_VALUE: bkops_notify_reboot:code <- $x1
	//DEBUG_VALUE: bkops_notify_reboot:no_use <- $x2
	str	x19, [sp, #-32]!        // 8-byte Folded Spill
	stp	x29, x30, [sp, #16]     // 16-byte Folded Spill
	add	x29, sp, #16            // =16
	.cfi_def_cfa w29, 16
	.cfi_offset w30, -8
	.cfi_offset w29, -16
	.cfi_offset w19, -32
.Ltmp109:
	.loc	5 358 2 prologue_end    // kernel/block/hisi-bkops-core.c:358:2
	adrp	x19, bkops_lock
	add	x19, x19, :lo12:bkops_lock
	mov	x0, x19
.Ltmp110:
	bl	mutex_lock
.Ltmp111:
	.loc	5 359 16                // kernel/block/hisi-bkops-core.c:359:16
	adrp	x8, bkops_enabled
	orr	w9, wzr, #0x1
	.loc	5 360 2                 // kernel/block/hisi-bkops-core.c:360:2
	mov	x0, x19
	.loc	5 359 16                // kernel/block/hisi-bkops-core.c:359:16
	strb	w9, [x8, :lo12:bkops_enabled]
	.loc	5 360 2                 // kernel/block/hisi-bkops-core.c:360:2
	bl	mutex_unlock
.Ltmp112:
	.loc	5 397 2                 // kernel/block/hisi-bkops-core.c:397:2
	ldp	x29, x30, [sp, #16]     // 16-byte Folded Reload
	mov	w0, wzr
	ldr	x19, [sp], #32          // 8-byte Folded Reload
	ret
.Ltmp113:
.Lfunc_end3:
	.size	bkops_notify_reboot, .Lfunc_end3-bkops_notify_reboot
	.cfi_endproc
                                        // -- End function
	.globl	hisi_bkops_alloc        // -- Begin function hisi_bkops_alloc
	.p2align	2
	.type	hisi_bkops_alloc,@function
hisi_bkops_alloc:                       // @hisi_bkops_alloc
.Lfunc_begin4:
	.loc	5 442 0                 // kernel/block/hisi-bkops-core.c:442:0
	.cfi_startproc
// %bb.0:
	//DEBUG_VALUE: kzalloc:size <- 256
	//DEBUG_VALUE: kzalloc:flags <- 20971712
	//DEBUG_VALUE: kmalloc:size <- 256
	//DEBUG_VALUE: kmalloc:flags <- 21004480
	stp	x20, x19, [sp, #-32]!   // 16-byte Folded Spill
	stp	x29, x30, [sp, #16]     // 16-byte Folded Spill
	add	x29, sp, #16            // =16
	.cfi_def_cfa w29, 16
	.cfi_offset w30, -8
	.cfi_offset w29, -16
	.cfi_offset w19, -24
	.cfi_offset w20, -32
.Ltmp114:
	//DEBUG_VALUE: index <- 8
	.loc	147 539 5 prologue_end  // kernel/include/linux/slab.h:539:5
	adrp	x8, kmalloc_caches+64
	ldr	x0, [x8, :lo12:kmalloc_caches+64]
	.loc	147 538 10              // kernel/include/linux/slab.h:538:10
	mov	w1, #32960
	movk	w1, #320, lsl #16
	orr	w2, wzr, #0x100
	bl	kmem_cache_alloc_trace
	mov	x19, x0
.Ltmp115:
	//DEBUG_VALUE: hisi_bkops_alloc:bkops <- $x19
	.loc	5 446 6                 // kernel/block/hisi-bkops-core.c:446:6
	cbz	x0, .LBB4_2
.Ltmp116:
// %bb.1:
	//DEBUG_VALUE: hisi_bkops_alloc:bkops <- $x19
	//DEBUG_VALUE: hisi_bkops_alloc:bkops <- $x19
	.loc	5 451 2                 // kernel/block/hisi-bkops-core.c:451:2
	adrp	x10, __ufs_bkops_idle_work_func
	mov	x8, #68719476704
	mov	x20, x19
	add	x9, x19, #40            // =40
.Ltmp117:
	//DEBUG_VALUE: __write_once_size:res <- undef
	add	x10, x10, :lo12:__ufs_bkops_idle_work_func
.Ltmp118:
	.loc	5 451 2 is_stmt 0       // kernel/block/hisi-bkops-core.c:451:2
	add	x0, x19, #64            // =64
	orr	w1, wzr, #0x200000
	mov	x2, xzr
	mov	x3, xzr
.Ltmp119:
	.loc	5 451 2                 // kernel/block/hisi-bkops-core.c:451:2
	str	x8, [x20, #32]!
.Ltmp120:
	//DEBUG_VALUE: __write_once_size:p <- $x9
	//DEBUG_VALUE: __write_once_size:size <- 8
	//DEBUG_VALUE: INIT_LIST_HEAD:list <- $x9
	.file	150 "/mnt/disk/jenkins/ci/workspace/chipset_pipeline_release/opensource/component_code/vendor/huawei/extra/build/build_script/kirin_kernel_release/kernel/include/linux/compiler.h"
	.loc	150 210 31 is_stmt 1    // kernel/include/linux/compiler.h:210:31
	str	x9, [x19, #40]
.Ltmp121:
	.file	151 "/mnt/disk/jenkins/ci/workspace/chipset_pipeline_release/opensource/component_code/vendor/huawei/extra/build/build_script/kirin_kernel_release/kernel/include/linux/list.h"
	.loc	151 29 13               // kernel/include/linux/list.h:29:13
	stp	x9, x10, [x19, #48]
.Ltmp122:
	.loc	5 451 2                 // kernel/block/hisi-bkops-core.c:451:2
	bl	init_timer_key
.Ltmp123:
	adrp	x8, delayed_work_timer_fn
	add	x8, x8, :lo12:delayed_work_timer_fn
	mov	w9, #1000
	mov	w10, #3600
	orr	w11, wzr, #0x20000000
	stp	x8, x20, [x19, #88]
.Ltmp124:
	.loc	5 452 29                // kernel/block/hisi-bkops-core.c:452:29
	str	x9, [x19, #136]
	.loc	5 453 30                // kernel/block/hisi-bkops-core.c:453:30
	str	x10, [x19, #208]
	.loc	5 454 33                // kernel/block/hisi-bkops-core.c:454:33
	str	x11, [x19, #224]
	.loc	5 455 31                // kernel/block/hisi-bkops-core.c:455:31
	str	x11, [x19, #240]
	b	.LBB4_3
.Ltmp125:
.LBB4_2:
	//DEBUG_VALUE: hisi_bkops_alloc:bkops <- $x19
	.loc	5 447 3                 // kernel/block/hisi-bkops-core.c:447:3
	adrp	x0, .L.str.3
	add	x0, x0, :lo12:.L.str.3
	bl	printk
.Ltmp126:
.LBB4_3:
	//DEBUG_VALUE: hisi_bkops_alloc:bkops <- $x19
	.loc	5 458 1                 // kernel/block/hisi-bkops-core.c:458:1
	ldp	x29, x30, [sp, #16]     // 16-byte Folded Reload
	mov	x0, x19
	ldp	x20, x19, [sp], #32     // 16-byte Folded Reload
.Ltmp127:
	ret
.Ltmp128:
.Lfunc_end4:
	.size	hisi_bkops_alloc, .Lfunc_end4-hisi_bkops_alloc
	.cfi_endproc
                                        // -- End function
	.globl	hisi_bkops_manual_gc_proc_show // -- Begin function hisi_bkops_manual_gc_proc_show
	.p2align	2
	.type	hisi_bkops_manual_gc_proc_show,@function
hisi_bkops_manual_gc_proc_show:         // @hisi_bkops_manual_gc_proc_show
.Lfunc_begin5:
	.loc	5 461 0                 // kernel/block/hisi-bkops-core.c:461:0
	.cfi_startproc
// %bb.0:
	//DEBUG_VALUE: hisi_bkops_manual_gc_proc_show:m <- $x0
	//DEBUG_VALUE: hisi_bkops_manual_gc_proc_show:v <- $x1
	stp	x29, x30, [sp, #-16]!   // 16-byte Folded Spill
	mov	x29, sp
	.cfi_def_cfa w29, 16
	.cfi_offset w30, -8
	.cfi_offset w29, -16
.Ltmp129:
	.loc	5 462 24 prologue_end   // kernel/block/hisi-bkops-core.c:462:24
	adrp	x8, user_manual_gc
	ldrb	w2, [x8, :lo12:user_manual_gc]
	//DEBUG_VALUE: hisi_bkops_manual_gc_proc_show:m <- $x0
	.loc	5 462 2 is_stmt 0       // kernel/block/hisi-bkops-core.c:462:2
	adrp	x1, .L.str.4
.Ltmp130:
	add	x1, x1, :lo12:.L.str.4
	//DEBUG_VALUE: hisi_bkops_manual_gc_proc_show:m <- $x0
	bl	seq_printf
.Ltmp131:
	.loc	5 464 2 is_stmt 1       // kernel/block/hisi-bkops-core.c:464:2
	mov	w0, wzr
	ldp	x29, x30, [sp], #16     // 16-byte Folded Reload
	ret
.Ltmp132:
.Lfunc_end5:
	.size	hisi_bkops_manual_gc_proc_show, .Lfunc_end5-hisi_bkops_manual_gc_proc_show
	.cfi_endproc
                                        // -- End function
	.globl	hisi_bkops_manual_gc_proc_open // -- Begin function hisi_bkops_manual_gc_proc_open
	.p2align	2
	.type	hisi_bkops_manual_gc_proc_open,@function
hisi_bkops_manual_gc_proc_open:         // @hisi_bkops_manual_gc_proc_open
.Lfunc_begin6:
	.loc	5 469 0                 // kernel/block/hisi-bkops-core.c:469:0
	.cfi_startproc
// %bb.0:
	//DEBUG_VALUE: hisi_bkops_manual_gc_proc_open:p_inode <- $x0
	//DEBUG_VALUE: hisi_bkops_manual_gc_proc_open:p_file <- $x1
	stp	x29, x30, [sp, #-16]!   // 16-byte Folded Spill
	mov	x29, sp
	.cfi_def_cfa w29, 16
	.cfi_offset w30, -8
	.cfi_offset w29, -16
	mov	x0, x1
.Ltmp133:
	//DEBUG_VALUE: hisi_bkops_manual_gc_proc_open:p_file <- $x0
	.loc	5 470 9 prologue_end    // kernel/block/hisi-bkops-core.c:470:9
	adrp	x1, __cfi_hisi_bkops_manual_gc_proc_show
	add	x1, x1, :lo12:__cfi_hisi_bkops_manual_gc_proc_show
	//DEBUG_VALUE: hisi_bkops_manual_gc_proc_open:p_file <- $x0
	mov	x2, xzr
	bl	single_open
.Ltmp134:
	.loc	5 470 2 is_stmt 0       // kernel/block/hisi-bkops-core.c:470:2
	ldp	x29, x30, [sp], #16     // 16-byte Folded Reload
	ret
.Ltmp135:
.Lfunc_end6:
	.size	hisi_bkops_manual_gc_proc_open, .Lfunc_end6-hisi_bkops_manual_gc_proc_open
	.cfi_endproc
                                        // -- End function
	.globl	hisi_bkops_manual_gc_proc_write // -- Begin function hisi_bkops_manual_gc_proc_write
	.p2align	2
	.type	hisi_bkops_manual_gc_proc_write,@function
hisi_bkops_manual_gc_proc_write:        // @hisi_bkops_manual_gc_proc_write
.Lfunc_begin7:
	.loc	5 476 0 is_stmt 1       // kernel/block/hisi-bkops-core.c:476:0
	.cfi_startproc
// %bb.0:
	//DEBUG_VALUE: hisi_bkops_manual_gc_proc_write:p_file <- $x0
	//DEBUG_VALUE: hisi_bkops_manual_gc_proc_write:userbuf <- $x1
	//DEBUG_VALUE: hisi_bkops_manual_gc_proc_write:count <- $x2
	//DEBUG_VALUE: hisi_bkops_manual_gc_proc_write:ppos <- $x3
	sub	sp, sp, #48             // =48
	str	x19, [sp, #16]          // 8-byte Folded Spill
	stp	x29, x30, [sp, #32]     // 16-byte Folded Spill
	add	x29, sp, #32            // =32
	.cfi_def_cfa w29, 16
	.cfi_offset w30, -8
	.cfi_offset w29, -16
	.cfi_offset w19, -32
	adrp	x8, __stack_chk_guard
	ldr	x8, [x8, :lo12:__stack_chk_guard]
	mov	x0, #-22
.Ltmp136:
	//DEBUG_VALUE: hisi_bkops_manual_gc_proc_write:buf <- [DW_OP_plus_uconst 4, DW_OP_deref] $sp
	//DEBUG_VALUE: hisi_bkops_manual_gc_proc_write:userbuf <- $x1
	str	x8, [sp, #8]
.Ltmp137:
	.loc	5 479 13 prologue_end   // kernel/block/hisi-bkops-core.c:479:13
	cbz	x1, .LBB7_7
.Ltmp138:
// %bb.1:
	//DEBUG_VALUE: hisi_bkops_manual_gc_proc_write:buf <- [DW_OP_plus_uconst 4, DW_OP_deref] $sp
	//DEBUG_VALUE: hisi_bkops_manual_gc_proc_write:ppos <- $x3
	//DEBUG_VALUE: hisi_bkops_manual_gc_proc_write:count <- $x2
	//DEBUG_VALUE: hisi_bkops_manual_gc_proc_write:userbuf <- $x1
	.loc	5 0 13 is_stmt 0        // kernel/block/hisi-bkops-core.c:0:13
	mov	x19, x2
.Ltmp139:
	//DEBUG_VALUE: hisi_bkops_manual_gc_proc_write:count <- $x19
	.loc	5 479 13                // kernel/block/hisi-bkops-core.c:479:13
	cbz	x2, .LBB7_7
.Ltmp140:
// %bb.2:
	//DEBUG_VALUE: hisi_bkops_manual_gc_proc_write:count <- $x19
	//DEBUG_VALUE: hisi_bkops_manual_gc_proc_write:buf <- [DW_OP_plus_uconst 4, DW_OP_deref] $sp
	//DEBUG_VALUE: hisi_bkops_manual_gc_proc_write:ppos <- $x3
	//DEBUG_VALUE: hisi_bkops_manual_gc_proc_write:userbuf <- $x1
	//DEBUG_VALUE: hisi_bkops_manual_gc_proc_write:buf <- [DW_OP_plus_uconst 4, DW_OP_deref] $sp
	//DEBUG_VALUE: copy_from_user:to <- [DW_OP_plus_uconst 4] $sp
	//DEBUG_VALUE: copy_from_user:from <- $x1
	//DEBUG_VALUE: copy_from_user:n <- 1
	//DEBUG_VALUE: _copy_from_user:to <- [DW_OP_plus_uconst 4] $sp
	//DEBUG_VALUE: _copy_from_user:from <- $x1
	//DEBUG_VALUE: _copy_from_user:n <- 1
	//DEBUG_VALUE: _copy_from_user:res <- 1
	//DEBUG_VALUE: __range_ok:addr <- $x1
	//DEBUG_VALUE: __range_ok:size <- 1
	.file	152 "/mnt/disk/jenkins/ci/workspace/chipset_pipeline_release/opensource/component_code/vendor/huawei/extra/build/build_script/kirin_kernel_release/kernel/arch/arm64/include/asm/current.h"
	.loc	152 19 2 is_stmt 1      // kernel/arch/arm64/include/asm/current.h:19:2
	//APP
	mrs x8, sp_el0
	//NO_APP
.Ltmp141:
	//DEBUG_VALUE: get_current:sp_el0 <- $x8
	//DEBUG_VALUE: get_current:sp_el0 <- $x8
	.file	153 "/mnt/disk/jenkins/ci/workspace/chipset_pipeline_release/opensource/component_code/vendor/huawei/extra/build/build_script/kirin_kernel_release/kernel/arch/arm64/include/asm/uaccess.h"
	.loc	153 84 24               // kernel/arch/arm64/include/asm/uaccess.h:84:24
	ldr	x9, [x8, #8]
.Ltmp142:
	//DEBUG_VALUE: __range_ok:limit <- $x9
	.loc	153 87 2                // kernel/arch/arm64/include/asm/uaccess.h:87:2
	mov	x10, x1
	//APP
		adds	x10, x10, #1
	csel	x9, xzr, x9, hi
	csinv	x10, x10, xzr, cc
	sbcs	xzr, x10, x9
	cset	x10, ls

	//NO_APP
.Ltmp143:
	//DEBUG_VALUE: __range_ok:limit <- undef
	//DEBUG_VALUE: __range_ok:addr <- $x10
	.file	154 "/mnt/disk/jenkins/ci/workspace/chipset_pipeline_release/opensource/component_code/vendor/huawei/extra/build/build_script/kirin_kernel_release/kernel/include/linux/uaccess.h"
	.loc	154 114 6               // kernel/include/linux/uaccess.h:114:6
	cbz	x10, .LBB7_9
.Ltmp144:
// %bb.3:
	//DEBUG_VALUE: _copy_from_user:from <- $x1
	//DEBUG_VALUE: _copy_from_user:to <- [DW_OP_plus_uconst 4] $sp
	//DEBUG_VALUE: copy_from_user:from <- $x1
	//DEBUG_VALUE: copy_from_user:to <- [DW_OP_plus_uconst 4] $sp
	//DEBUG_VALUE: hisi_bkops_manual_gc_proc_write:count <- $x19
	//DEBUG_VALUE: hisi_bkops_manual_gc_proc_write:buf <- [DW_OP_plus_uconst 4, DW_OP_deref] $sp
	//DEBUG_VALUE: hisi_bkops_manual_gc_proc_write:ppos <- $x3
	//DEBUG_VALUE: hisi_bkops_manual_gc_proc_write:userbuf <- $x1
	//DEBUG_VALUE: __uaccess_mask_ptr:ptr <- $x1
	.loc	153 238 20              // kernel/arch/arm64/include/asm/uaccess.h:238:20
	ldr	x9, [x8, #8]
	.loc	153 234 2               // kernel/arch/arm64/include/asm/uaccess.h:234:2
	//APP
		bics	xzr, x1, x9
	csel	x8, x1, xzr, eq

	//NO_APP
.Ltmp145:
	//DEBUG_VALUE: __uaccess_mask_ptr:safe_ptr <- $x8
	.loc	153 241 2               // kernel/arch/arm64/include/asm/uaccess.h:241:2
	//APP
	hint #20
	//NO_APP
.Ltmp146:
	.loc	154 116 9               // kernel/include/linux/uaccess.h:116:9
	add	x0, sp, #4              // =4
	orr	w2, wzr, #0x1
	mov	x1, x8
.Ltmp147:
	bl	__arch_copy_from_user
.Ltmp148:
	.loc	154 118 6               // kernel/include/linux/uaccess.h:118:6
	cbnz	x0, .LBB7_10
.Ltmp149:
// %bb.4:
	//DEBUG_VALUE: copy_from_user:to <- [DW_OP_plus_uconst 4] $sp
	//DEBUG_VALUE: hisi_bkops_manual_gc_proc_write:count <- $x19
	//DEBUG_VALUE: hisi_bkops_manual_gc_proc_write:buf <- [DW_OP_plus_uconst 4, DW_OP_deref] $sp
	//DEBUG_VALUE: copy_from_user:n <- 0
	.loc	5 485 6                 // kernel/block/hisi-bkops-core.c:485:6
	ldrb	w8, [sp, #4]
.Ltmp150:
	//DEBUG_VALUE: hisi_bkops_manual_gc_proc_write:buf <- $w8
	.loc	5 485 17 is_stmt 0      // kernel/block/hisi-bkops-core.c:485:17
	sub	w8, w8, #48             // =48
.Ltmp151:
	cmp	w8, #2                  // =2
	b.hs	.LBB7_6
.Ltmp152:
// %bb.5:
	//DEBUG_VALUE: hisi_bkops_manual_gc_proc_write:count <- $x19
	.loc	5 490 17 is_stmt 1      // kernel/block/hisi-bkops-core.c:490:17
	adrp	x9, user_manual_gc
	.loc	5 0 0 is_stmt 0         // kernel/block/hisi-bkops-core.c:0:0
	mov	x0, x19
	.loc	5 490 17                // kernel/block/hisi-bkops-core.c:490:17
	strb	w8, [x9, :lo12:user_manual_gc]
	b	.LBB7_7
.Ltmp153:
.LBB7_6:
	//DEBUG_VALUE: hisi_bkops_manual_gc_proc_write:count <- $x19
	.loc	5 486 3 is_stmt 1       // kernel/block/hisi-bkops-core.c:486:3
	adrp	x0, .L.str.5
	adrp	x1, .L__func__.hisi_bkops_manual_gc_proc_write
	add	x0, x0, :lo12:.L.str.5
	add	x1, x1, :lo12:.L__func__.hisi_bkops_manual_gc_proc_write
	mov	w2, #486
	bl	printk
	mov	x0, #-22
.Ltmp154:
.LBB7_7:
	//DEBUG_VALUE: hisi_bkops_manual_gc_proc_write:buf <- [DW_OP_plus_uconst 4, DW_OP_deref] $sp
	.loc	5 0 3 is_stmt 0         // kernel/block/hisi-bkops-core.c:0:3
	adrp	x9, __stack_chk_guard
	ldr	x8, [sp, #8]
	ldr	x9, [x9, :lo12:__stack_chk_guard]
	cmp	x9, x8
	b.ne	.LBB7_12
.Ltmp155:
// %bb.8:
	//DEBUG_VALUE: hisi_bkops_manual_gc_proc_write:buf <- [DW_OP_plus_uconst 4, DW_OP_deref] $sp
	.loc	5 493 1 is_stmt 1       // kernel/block/hisi-bkops-core.c:493:1
	ldp	x29, x30, [sp, #32]     // 16-byte Folded Reload
	ldr	x19, [sp, #16]          // 8-byte Folded Reload
	add	sp, sp, #48             // =48
.Ltmp156:
	ret
.LBB7_9:
.Ltmp157:
	//DEBUG_VALUE: __range_ok:addr <- $x10
	//DEBUG_VALUE: get_current:sp_el0 <- $x8
	//DEBUG_VALUE: get_current:sp_el0 <- $x8
	//DEBUG_VALUE: _copy_from_user:from <- $x1
	//DEBUG_VALUE: _copy_from_user:to <- [DW_OP_plus_uconst 4] $sp
	//DEBUG_VALUE: copy_from_user:from <- $x1
	//DEBUG_VALUE: copy_from_user:to <- [DW_OP_plus_uconst 4] $sp
	//DEBUG_VALUE: hisi_bkops_manual_gc_proc_write:count <- $x19
	//DEBUG_VALUE: hisi_bkops_manual_gc_proc_write:buf <- [DW_OP_plus_uconst 4, DW_OP_deref] $sp
	//DEBUG_VALUE: hisi_bkops_manual_gc_proc_write:ppos <- $x3
	//DEBUG_VALUE: hisi_bkops_manual_gc_proc_write:userbuf <- $x1
	.loc	5 0 1 is_stmt 0         // kernel/block/hisi-bkops-core.c:0:1
	orr	w2, wzr, #0x1
	b	.LBB7_11
.Ltmp158:
.LBB7_10:
	//DEBUG_VALUE: _copy_from_user:to <- [DW_OP_plus_uconst 4] $sp
	//DEBUG_VALUE: copy_from_user:to <- [DW_OP_plus_uconst 4] $sp
	//DEBUG_VALUE: hisi_bkops_manual_gc_proc_write:count <- $x19
	//DEBUG_VALUE: hisi_bkops_manual_gc_proc_write:buf <- [DW_OP_plus_uconst 4, DW_OP_deref] $sp
	mov	x2, x0
.Ltmp159:
	//DEBUG_VALUE: _copy_from_user:res <- $x2
.LBB7_11:
	//DEBUG_VALUE: _copy_from_user:to <- [DW_OP_plus_uconst 4] $sp
	//DEBUG_VALUE: copy_from_user:to <- [DW_OP_plus_uconst 4] $sp
	//DEBUG_VALUE: hisi_bkops_manual_gc_proc_write:count <- $x19
	//DEBUG_VALUE: hisi_bkops_manual_gc_proc_write:buf <- [DW_OP_plus_uconst 4, DW_OP_deref] $sp
	orr	w8, wzr, #0x1
.Ltmp160:
	.loc	154 119 18 is_stmt 1    // kernel/include/linux/uaccess.h:119:18
	sub	x8, x8, x2
	add	x9, sp, #4              // =4
	.loc	154 119 13 is_stmt 0    // kernel/include/linux/uaccess.h:119:13
	add	x0, x9, x8
	.loc	154 119 3               // kernel/include/linux/uaccess.h:119:3
	mov	w1, wzr
	bl	memset
	mov	x0, #-14
	b	.LBB7_7
.Ltmp161:
.LBB7_12:
	//DEBUG_VALUE: hisi_bkops_manual_gc_proc_write:buf <- [DW_OP_plus_uconst 4, DW_OP_deref] $sp
	.loc	154 0 3                 // kernel/include/linux/uaccess.h:0:3
	bl	__stack_chk_fail
.Lfunc_end7:
	.size	hisi_bkops_manual_gc_proc_write, .Lfunc_end7-hisi_bkops_manual_gc_proc_write
	.cfi_endproc
                                        // -- End function
	.globl	hisi_bkops_status_proc_show // -- Begin function hisi_bkops_status_proc_show
	.p2align	2
	.type	hisi_bkops_status_proc_show,@function
hisi_bkops_status_proc_show:            // @hisi_bkops_status_proc_show
.Lfunc_begin8:
	.loc	5 504 0 is_stmt 1       // kernel/block/hisi-bkops-core.c:504:0
	.cfi_startproc
// %bb.0:
	//DEBUG_VALUE: hisi_bkops_status_proc_show:m <- $x0
	//DEBUG_VALUE: hisi_bkops_status_proc_show:v <- $x1
	sub	sp, sp, #64             // =64
	str	x21, [sp, #16]          // 8-byte Folded Spill
	stp	x20, x19, [sp, #32]     // 16-byte Folded Spill
	stp	x29, x30, [sp, #48]     // 16-byte Folded Spill
	add	x29, sp, #48            // =48
	.cfi_def_cfa w29, 16
	.cfi_offset w30, -8
	.cfi_offset w29, -16
	.cfi_offset w19, -24
	.cfi_offset w20, -32
	.cfi_offset w21, -48
	adrp	x8, __stack_chk_guard
	ldr	x8, [x8, :lo12:__stack_chk_guard]
	mov	x19, x0
	str	x8, [sp, #8]
.Ltmp162:
	//DEBUG_VALUE: hisi_bkops_status_proc_show:status <- 0
	//DEBUG_VALUE: hisi_bkops_status_proc_show:m <- $x19
	.loc	5 505 6 prologue_end    // kernel/block/hisi-bkops-core.c:505:6
	str	wzr, [sp, #4]
	.loc	5 507 22                // kernel/block/hisi-bkops-core.c:507:22
	ldr	x20, [x0, #152]
.Ltmp163:
	//DEBUG_VALUE: hisi_bkops_query:ret <- 0
	//DEBUG_VALUE: hisi_bkops_query:bkops_status <- [DW_OP_plus_uconst 4] $sp
	//DEBUG_VALUE: hisi_bkops_status_proc_show:status <- [DW_OP_plus_uconst 4, DW_OP_deref] $sp
	//DEBUG_VALUE: hisi_bkops_query:bkops <- $x20
	.loc	5 103 2                 // kernel/block/hisi-bkops-core.c:103:2
	adrp	x0, bkops_lock
	add	x0, x0, :lo12:bkops_lock
	.loc	5 96 41                 // kernel/block/hisi-bkops-core.c:96:41
	ldr	x21, [x20, #8]
.Ltmp164:
	//DEBUG_VALUE: hisi_bkops_query:bkops_ops_p <- $x21
	.loc	5 103 2                 // kernel/block/hisi-bkops-core.c:103:2
	bl	mutex_lock
.Ltmp165:
	.loc	5 104 7                 // kernel/block/hisi-bkops-core.c:104:7
	adrp	x8, bkops_enabled
	ldrb	w8, [x8, :lo12:bkops_enabled]
.Ltmp166:
	.loc	5 104 6 is_stmt 0       // kernel/block/hisi-bkops-core.c:104:6
	tbnz	w8, #0, .LBB8_4
.Ltmp167:
// %bb.1:
	//DEBUG_VALUE: hisi_bkops_query:bkops_ops_p <- $x21
	//DEBUG_VALUE: hisi_bkops_query:bkops <- $x20
	//DEBUG_VALUE: hisi_bkops_status_proc_show:status <- [DW_OP_plus_uconst 4, DW_OP_deref] $sp
	//DEBUG_VALUE: hisi_bkops_query:bkops_status <- [DW_OP_plus_uconst 4] $sp
	//DEBUG_VALUE: hisi_bkops_status_proc_show:m <- $x19
	.loc	5 116 21 is_stmt 1      // kernel/block/hisi-bkops-core.c:116:21
	ldr	x8, [x21, #8]
	.loc	5 117 10                // kernel/block/hisi-bkops-core.c:117:10
	ldr	x0, [x20, #16]
	.loc	5 116 8                 // kernel/block/hisi-bkops-core.c:116:8
	add	x1, sp, #4              // =4
	blr	x8
.Ltmp168:
	//DEBUG_VALUE: hisi_bkops_query:ret <- undef
	.loc	5 118 6                 // kernel/block/hisi-bkops-core.c:118:6
	adrp	x8, user_manual_gc
	ldrb	w9, [x8, :lo12:user_manual_gc]
	.loc	5 118 21 is_stmt 0      // kernel/block/hisi-bkops-core.c:118:21
	cbz	w9, .LBB8_4
.Ltmp169:
// %bb.2:
	//DEBUG_VALUE: hisi_bkops_query:bkops_ops_p <- $x21
	//DEBUG_VALUE: hisi_bkops_query:bkops <- $x20
	//DEBUG_VALUE: hisi_bkops_status_proc_show:status <- [DW_OP_plus_uconst 4, DW_OP_deref] $sp
	//DEBUG_VALUE: hisi_bkops_query:bkops_status <- [DW_OP_plus_uconst 4] $sp
	//DEBUG_VALUE: hisi_bkops_status_proc_show:m <- $x19
	.loc	5 0 0                   // kernel/block/hisi-bkops-core.c:0:0
	ldr	w9, [sp, #4]
	.loc	5 118 21                // kernel/block/hisi-bkops-core.c:118:21
	cbnz	w9, .LBB8_4
.Ltmp170:
// %bb.3:
	//DEBUG_VALUE: hisi_bkops_query:bkops_ops_p <- $x21
	//DEBUG_VALUE: hisi_bkops_query:bkops <- $x20
	//DEBUG_VALUE: hisi_bkops_status_proc_show:status <- [DW_OP_plus_uconst 4, DW_OP_deref] $sp
	//DEBUG_VALUE: hisi_bkops_query:bkops_status <- [DW_OP_plus_uconst 4] $sp
	//DEBUG_VALUE: hisi_bkops_status_proc_show:m <- $x19
	.loc	5 119 18 is_stmt 1      // kernel/block/hisi-bkops-core.c:119:18
	strb	wzr, [x8, :lo12:user_manual_gc]
.Ltmp171:
.LBB8_4:
	//DEBUG_VALUE: hisi_bkops_query:bkops_ops_p <- $x21
	//DEBUG_VALUE: hisi_bkops_query:bkops <- $x20
	//DEBUG_VALUE: hisi_bkops_status_proc_show:status <- [DW_OP_plus_uconst 4, DW_OP_deref] $sp
	//DEBUG_VALUE: hisi_bkops_query:bkops_status <- [DW_OP_plus_uconst 4] $sp
	//DEBUG_VALUE: hisi_bkops_status_proc_show:m <- $x19
	//DEBUG_VALUE: hisi_bkops_query:ret <- undef
	//DEBUG_LABEL: hisi_bkops_query:out
	.loc	5 137 2                 // kernel/block/hisi-bkops-core.c:137:2
	adrp	x0, bkops_lock
	add	x0, x0, :lo12:bkops_lock
	bl	mutex_unlock
.Ltmp172:
	.loc	5 508 24                // kernel/block/hisi-bkops-core.c:508:24
	ldr	w2, [sp, #4]
.Ltmp173:
	//DEBUG_VALUE: hisi_bkops_status_proc_show:status <- $w2
	.loc	5 508 2 is_stmt 0       // kernel/block/hisi-bkops-core.c:508:2
	adrp	x1, .L.str.6
	add	x1, x1, :lo12:.L.str.6
	mov	x0, x19
	bl	seq_printf
.Ltmp174:
	.loc	5 0 2                   // kernel/block/hisi-bkops-core.c:0:2
	adrp	x9, __stack_chk_guard
	ldr	x8, [sp, #8]
	ldr	x9, [x9, :lo12:__stack_chk_guard]
	cmp	x9, x8
	b.ne	.LBB8_6
.Ltmp175:
// %bb.5:
	//DEBUG_VALUE: hisi_bkops_status_proc_show:m <- $x19
	.loc	5 510 2 is_stmt 1       // kernel/block/hisi-bkops-core.c:510:2
	ldp	x29, x30, [sp, #48]     // 16-byte Folded Reload
	ldp	x20, x19, [sp, #32]     // 16-byte Folded Reload
.Ltmp176:
	ldr	x21, [sp, #16]          // 8-byte Folded Reload
	mov	w0, wzr
	add	sp, sp, #64             // =64
	ret
.Ltmp177:
.LBB8_6:
	//DEBUG_VALUE: hisi_bkops_query:bkops_ops_p <- $x21
	//DEBUG_VALUE: hisi_bkops_query:bkops <- $x20
	//DEBUG_VALUE: hisi_bkops_query:bkops_status <- [DW_OP_plus_uconst 4] $sp
	//DEBUG_VALUE: hisi_bkops_status_proc_show:m <- $x19
	.loc	5 0 2 is_stmt 0         // kernel/block/hisi-bkops-core.c:0:2
	bl	__stack_chk_fail
.Lfunc_end8:
	.size	hisi_bkops_status_proc_show, .Lfunc_end8-hisi_bkops_status_proc_show
	.cfi_endproc
                                        // -- End function
	.globl	hisi_bkops_status_proc_open // -- Begin function hisi_bkops_status_proc_open
	.p2align	2
	.type	hisi_bkops_status_proc_open,@function
hisi_bkops_status_proc_open:            // @hisi_bkops_status_proc_open
.Lfunc_begin9:
	.loc	5 515 0 is_stmt 1       // kernel/block/hisi-bkops-core.c:515:0
	.cfi_startproc
// %bb.0:
	//DEBUG_VALUE: hisi_bkops_status_proc_open:p_inode <- $x0
	//DEBUG_VALUE: hisi_bkops_status_proc_open:p_file <- $x1
	str	x19, [sp, #-32]!        // 8-byte Folded Spill
	stp	x29, x30, [sp, #16]     // 16-byte Folded Spill
	add	x29, sp, #16            // =16
	.cfi_def_cfa w29, 16
	.cfi_offset w30, -8
	.cfi_offset w29, -16
	.cfi_offset w19, -32
	mov	x19, x1
.Ltmp178:
	//DEBUG_VALUE: hisi_bkops_status_proc_open:p_file <- $x19
	//DEBUG_VALUE: hisi_bkops_status_proc_open:p_inode <- $x0
	//DEBUG_VALUE: hisi_bkops_status_proc_open:p_inode <- $x0
	.loc	5 517 38 prologue_end   // kernel/block/hisi-bkops-core.c:517:38
	bl	PDE_DATA
.Ltmp179:
	.loc	5 516 9                 // kernel/block/hisi-bkops-core.c:516:9
	adrp	x1, __cfi_hisi_bkops_status_proc_show
	.loc	5 517 38                // kernel/block/hisi-bkops-core.c:517:38
	mov	x2, x0
	.loc	5 516 9                 // kernel/block/hisi-bkops-core.c:516:9
	add	x1, x1, :lo12:__cfi_hisi_bkops_status_proc_show
	mov	x0, x19
.Ltmp180:
	//DEBUG_VALUE: hisi_bkops_status_proc_open:p_file <- $x0
	bl	single_open
.Ltmp181:
	.loc	5 516 2 is_stmt 0       // kernel/block/hisi-bkops-core.c:516:2
	ldp	x29, x30, [sp, #16]     // 16-byte Folded Reload
	ldr	x19, [sp], #32          // 8-byte Folded Reload
	ret
.Ltmp182:
.Lfunc_end9:
	.size	hisi_bkops_status_proc_open, .Lfunc_end9-hisi_bkops_status_proc_open
	.cfi_endproc
                                        // -- End function
	.globl	hisi_bkops_enable       // -- Begin function hisi_bkops_enable
	.p2align	2
	.type	hisi_bkops_enable,@function
hisi_bkops_enable:                      // @hisi_bkops_enable
.Lfunc_begin10:
	.loc	5 544 0 is_stmt 1       // kernel/block/hisi-bkops-core.c:544:0
	.cfi_startproc
// %bb.0:
	//DEBUG_VALUE: hisi_bkops_enable:q <- $x0
	//DEBUG_VALUE: hisi_bkops_enable:bkops <- $x1
	//DEBUG_VALUE: hisi_bkops_enable:pdir <- $x2
	stp	x24, x23, [sp, #-64]!   // 16-byte Folded Spill
	stp	x22, x21, [sp, #16]     // 16-byte Folded Spill
	stp	x20, x19, [sp, #32]     // 16-byte Folded Spill
	stp	x29, x30, [sp, #48]     // 16-byte Folded Spill
	add	x29, sp, #48            // =48
	.cfi_def_cfa w29, 16
	.cfi_offset w30, -8
	.cfi_offset w29, -16
	.cfi_offset w19, -24
	.cfi_offset w20, -32
	.cfi_offset w21, -40
	.cfi_offset w22, -48
	.cfi_offset w23, -56
	.cfi_offset w24, -64
	mov	x21, x0
	mov	w0, #-22
.Ltmp183:
	//DEBUG_VALUE: hisi_bkops_enable:blk_lld <- 0
	//DEBUG_VALUE: hisi_bkops_enable:event_node <- 0
	//DEBUG_VALUE: hisi_bkops_enable:q <- $x21
	.loc	5 548 9 prologue_end    // kernel/block/hisi-bkops-core.c:548:9
	cbz	x21, .LBB10_20
.Ltmp184:
// %bb.1:
	//DEBUG_VALUE: hisi_bkops_enable:q <- $x21
	//DEBUG_VALUE: hisi_bkops_enable:pdir <- $x2
	//DEBUG_VALUE: hisi_bkops_enable:bkops <- $x1
	.loc	5 0 9 is_stmt 0         // kernel/block/hisi-bkops-core.c:0:9
	mov	x19, x1
.Ltmp185:
	//DEBUG_VALUE: hisi_bkops_enable:bkops <- $x19
	.loc	5 548 9                 // kernel/block/hisi-bkops-core.c:548:9
	cbz	x1, .LBB10_20
.Ltmp186:
// %bb.2:
	//DEBUG_VALUE: hisi_bkops_enable:bkops <- $x19
	//DEBUG_VALUE: hisi_bkops_enable:q <- $x21
	//DEBUG_VALUE: hisi_bkops_enable:pdir <- $x2
	.loc	5 0 9                   // kernel/block/hisi-bkops-core.c:0:9
	mov	x22, x2
.Ltmp187:
	//DEBUG_VALUE: hisi_bkops_enable:pdir <- $x22
	.loc	5 548 9                 // kernel/block/hisi-bkops-core.c:548:9
	cbz	x2, .LBB10_20
.Ltmp188:
// %bb.3:
	//DEBUG_VALUE: hisi_bkops_enable:pdir <- $x22
	//DEBUG_VALUE: hisi_bkops_enable:bkops <- $x19
	//DEBUG_VALUE: hisi_bkops_enable:q <- $x21
	.loc	5 552 12 is_stmt 1      // kernel/block/hisi-bkops-core.c:552:12
	mov	x0, x21
	bl	hisi_blk_get_lld
	.loc	5 553 6                 // kernel/block/hisi-bkops-core.c:553:6
	ldrb	w8, [x0, #24]
	tbz	w8, #3, .LBB10_22
.Ltmp189:
// %bb.4:
	//DEBUG_VALUE: hisi_bkops_enable:pdir <- $x22
	//DEBUG_VALUE: hisi_bkops_enable:bkops <- $x19
	//DEBUG_VALUE: hisi_bkops_enable:q <- $x21
	.loc	5 558 13                // kernel/block/hisi-bkops-core.c:558:13
	ldr	w8, [x19]
	.loc	5 558 40 is_stmt 0      // kernel/block/hisi-bkops-core.c:558:40
	sub	w8, w8, #1              // =1
	cmp	w8, #3                  // =3
	b.lo	.LBB10_6
.Ltmp190:
// %bb.5:
	//DEBUG_VALUE: hisi_bkops_enable:pdir <- $x22
	//DEBUG_VALUE: hisi_bkops_enable:bkops <- $x19
	//DEBUG_VALUE: hisi_bkops_enable:q <- $x21
	.loc	5 560 3 is_stmt 1       // kernel/block/hisi-bkops-core.c:560:3
	adrp	x0, .L.str.8
	add	x0, x0, :lo12:.L.str.8
.Ltmp191:
	.loc	5 0 0 is_stmt 0         // kernel/block/hisi-bkops-core.c:0:0
	bl	printk
	b	.LBB10_19
.Ltmp192:
.LBB10_6:
	//DEBUG_VALUE: hisi_bkops_enable:pdir <- $x22
	//DEBUG_VALUE: hisi_bkops_enable:bkops <- $x19
	//DEBUG_VALUE: hisi_bkops_enable:q <- $x21
	.loc	5 564 14 is_stmt 1      // kernel/block/hisi-bkops-core.c:564:14
	ldr	x8, [x19, #8]
.Ltmp193:
	.loc	5 564 6 is_stmt 0       // kernel/block/hisi-bkops-core.c:564:6
	cbz	x8, .LBB10_15
.Ltmp194:
// %bb.7:
	//DEBUG_VALUE: hisi_bkops_enable:pdir <- $x22
	//DEBUG_VALUE: hisi_bkops_enable:bkops <- $x19
	//DEBUG_VALUE: hisi_bkops_enable:q <- $x21
	.loc	5 414 6 is_stmt 1       // kernel/block/hisi-bkops-core.c:414:6
	adrp	x24, hisi_bkops_inited
	ldrb	w8, [x24, :lo12:hisi_bkops_inited]
.Ltmp195:
	.loc	5 0 0 is_stmt 0         // kernel/block/hisi-bkops-core.c:0:0
	mov	x20, x0
.Ltmp196:
	//DEBUG_VALUE: hisi_bkops_enable:blk_lld <- $x20
	.loc	5 414 6                 // kernel/block/hisi-bkops-core.c:414:6
	tbnz	w8, #0, .LBB10_10
.Ltmp197:
// %bb.8:
	//DEBUG_VALUE: hisi_bkops_enable:blk_lld <- $x20
	//DEBUG_VALUE: hisi_bkops_enable:pdir <- $x22
	//DEBUG_VALUE: hisi_bkops_enable:bkops <- $x19
	//DEBUG_VALUE: hisi_bkops_enable:q <- $x21
	.loc	5 417 22 is_stmt 1      // kernel/block/hisi-bkops-core.c:417:22
	adrp	x0, .L.str.14
	add	x0, x0, :lo12:.L.str.14
	orr	w1, wzr, #0x18
	mov	w2, wzr
	mov	x3, xzr
	mov	x4, xzr
	bl	__alloc_workqueue_key
	.loc	5 417 20 is_stmt 0      // kernel/block/hisi-bkops-core.c:417:20
	adrp	x8, bkops_workqueue_g
	str	x0, [x8, :lo12:bkops_workqueue_g]
	.loc	5 419 6 is_stmt 1       // kernel/block/hisi-bkops-core.c:419:6
	cbz	x0, .LBB10_18
.Ltmp198:
// %bb.9:
	//DEBUG_VALUE: hisi_bkops_enable:blk_lld <- $x20
	//DEBUG_VALUE: hisi_bkops_enable:pdir <- $x22
	//DEBUG_VALUE: hisi_bkops_enable:bkops <- $x19
	//DEBUG_VALUE: hisi_bkops_enable:q <- $x21
	.loc	5 420 3                 // kernel/block/hisi-bkops-core.c:420:3
	adrp	x0, bkops_pm_notifier
	add	x0, x0, :lo12:bkops_pm_notifier
	bl	register_pm_notifier
	.loc	5 421 3                 // kernel/block/hisi-bkops-core.c:421:3
	adrp	x0, bkops_reboot_notifier
	add	x0, x0, :lo12:bkops_reboot_notifier
	bl	register_reboot_notifier
	orr	w8, wzr, #0x1
	.loc	5 422 21                // kernel/block/hisi-bkops-core.c:422:21
	strb	w8, [x24, :lo12:hisi_bkops_inited]
.Ltmp199:
.LBB10_10:
	//DEBUG_VALUE: hisi_bkops_enable:blk_lld <- $x20
	//DEBUG_VALUE: hisi_bkops_enable:pdir <- $x22
	//DEBUG_VALUE: hisi_bkops_enable:bkops <- $x19
	//DEBUG_VALUE: hisi_bkops_enable:q <- $x21
	.loc	5 575 6                 // kernel/block/hisi-bkops-core.c:575:6
	mov	x0, x19
	mov	x1, x22
.Ltmp200:
	.loc	5 0 0 is_stmt 0         // kernel/block/hisi-bkops-core.c:0:0
	add	x23, x19, #144          // =144
.Ltmp201:
	//DEBUG_VALUE: hisi_bkops_enable:event_node <- $x23
	.loc	5 575 6                 // kernel/block/hisi-bkops-core.c:575:6
	bl	hisi_bkops_add_debugfs
.Ltmp202:
	.loc	5 575 6                 // kernel/block/hisi-bkops-core.c:575:6
	cbz	w0, .LBB10_12
.Ltmp203:
// %bb.11:
	//DEBUG_VALUE: hisi_bkops_enable:event_node <- $x23
	//DEBUG_VALUE: hisi_bkops_enable:blk_lld <- $x20
	//DEBUG_VALUE: hisi_bkops_enable:pdir <- $x22
	//DEBUG_VALUE: hisi_bkops_enable:bkops <- $x19
	//DEBUG_VALUE: hisi_bkops_enable:q <- $x21
	.loc	5 576 3 is_stmt 1       // kernel/block/hisi-bkops-core.c:576:3
	adrp	x0, .L.str.11
	add	x0, x0, :lo12:.L.str.11
	bl	printk
.Ltmp204:
.LBB10_12:
	//DEBUG_VALUE: hisi_bkops_enable:event_node <- $x23
	//DEBUG_VALUE: hisi_bkops_enable:blk_lld <- $x20
	//DEBUG_VALUE: hisi_bkops_enable:pdir <- $x22
	//DEBUG_VALUE: hisi_bkops_enable:bkops <- $x19
	//DEBUG_VALUE: hisi_bkops_enable:q <- $x21
	.loc	5 579 2                 // kernel/block/hisi-bkops-core.c:579:2
	adrp	x1, .L.str.12
	add	x1, x1, :lo12:.L.str.12
	orr	w2, wzr, #0x20
	mov	x0, x23
	.loc	5 578 11                // kernel/block/hisi-bkops-core.c:578:11
	str	x21, [x19, #24]
	.loc	5 579 2                 // kernel/block/hisi-bkops-core.c:579:2
	bl	strncpy
	.loc	5 582 32                // kernel/block/hisi-bkops-core.c:582:32
	adrp	x8, __cfi_bkops_io_busyidle_notify_handler
	add	x8, x8, :lo12:__cfi_bkops_io_busyidle_notify_handler
.Ltmp205:
	.loc	5 584 6                 // kernel/block/hisi-bkops-core.c:584:6
	mov	x0, x20
	mov	x1, x23
.Ltmp206:
	.loc	5 581 50                // kernel/block/hisi-bkops-core.c:581:50
	strb	wzr, [x19, #175]
	.loc	5 582 32                // kernel/block/hisi-bkops-core.c:582:32
	stp	x8, x19, [x19, #176]
.Ltmp207:
	.loc	5 584 6                 // kernel/block/hisi-bkops-core.c:584:6
	bl	blk_lld_busyidle_event_subscribe
.Ltmp208:
	.loc	5 584 6 is_stmt 0       // kernel/block/hisi-bkops-core.c:584:6
	cbz	w0, .LBB10_16
.Ltmp209:
// %bb.13:
	//DEBUG_VALUE: hisi_bkops_enable:event_node <- $x23
	//DEBUG_VALUE: hisi_bkops_enable:blk_lld <- $x20
	//DEBUG_VALUE: hisi_bkops_enable:pdir <- $x22
	//DEBUG_VALUE: hisi_bkops_enable:bkops <- $x19
	//DEBUG_VALUE: hisi_bkops_enable:q <- $x21
	//DEBUG_LABEL: hisi_bkops_enable:bkops_exit
	.loc	5 431 7 is_stmt 1       // kernel/block/hisi-bkops-core.c:431:7
	adrp	x19, bkops_workqueue_g
.Ltmp210:
	ldr	x8, [x19, :lo12:bkops_workqueue_g]
.Ltmp211:
	.loc	5 431 6 is_stmt 0       // kernel/block/hisi-bkops-core.c:431:6
	cbz	x8, .LBB10_19
.Ltmp212:
// %bb.14:
	//DEBUG_VALUE: hisi_bkops_enable:event_node <- $x23
	//DEBUG_VALUE: hisi_bkops_enable:blk_lld <- $x20
	//DEBUG_VALUE: hisi_bkops_enable:pdir <- $x22
	//DEBUG_VALUE: hisi_bkops_enable:q <- $x21
	.loc	5 435 2 is_stmt 1       // kernel/block/hisi-bkops-core.c:435:2
	adrp	x0, bkops_reboot_notifier
	add	x0, x0, :lo12:bkops_reboot_notifier
	.loc	5 434 20                // kernel/block/hisi-bkops-core.c:434:20
	strb	wzr, [x24, :lo12:hisi_bkops_inited]
	.loc	5 435 2                 // kernel/block/hisi-bkops-core.c:435:2
	bl	unregister_reboot_notifier
	.loc	5 436 2                 // kernel/block/hisi-bkops-core.c:436:2
	adrp	x0, bkops_pm_notifier
	add	x0, x0, :lo12:bkops_pm_notifier
	bl	unregister_pm_notifier
	.loc	5 437 20                // kernel/block/hisi-bkops-core.c:437:20
	ldr	x0, [x19, :lo12:bkops_workqueue_g]
	.loc	5 437 2 is_stmt 0       // kernel/block/hisi-bkops-core.c:437:2
	bl	destroy_workqueue
	.loc	5 438 20 is_stmt 1      // kernel/block/hisi-bkops-core.c:438:20
	str	xzr, [x19, :lo12:bkops_workqueue_g]
	b	.LBB10_19
.Ltmp213:
.LBB10_15:
	//DEBUG_VALUE: hisi_bkops_enable:pdir <- $x22
	//DEBUG_VALUE: hisi_bkops_enable:bkops <- $x19
	//DEBUG_VALUE: hisi_bkops_enable:q <- $x21
	.loc	5 565 3                 // kernel/block/hisi-bkops-core.c:565:3
	adrp	x0, .L.str.9
	add	x0, x0, :lo12:.L.str.9
.Ltmp214:
	.loc	5 0 0 is_stmt 0         // kernel/block/hisi-bkops-core.c:0:0
	bl	printk
	b	.LBB10_19
.Ltmp215:
.LBB10_16:
	//DEBUG_VALUE: hisi_bkops_enable:event_node <- $x23
	//DEBUG_VALUE: hisi_bkops_enable:blk_lld <- $x20
	//DEBUG_VALUE: hisi_bkops_enable:pdir <- $x22
	//DEBUG_VALUE: hisi_bkops_enable:bkops <- $x19
	//DEBUG_VALUE: hisi_bkops_enable:q <- $x21
	//DEBUG_VALUE: hisi_bkops_manual_gc_proc_init:bkops <- $x19
	//DEBUG_VALUE: hisi_bkops_manual_gc_proc_init:dir <- 0
	.loc	5 531 8 is_stmt 1       // kernel/block/hisi-bkops-core.c:531:8
	adrp	x0, .L.str.15
	add	x0, x0, :lo12:.L.str.15
	mov	x1, xzr
	bl	proc_mkdir
	.loc	5 532 6                 // kernel/block/hisi-bkops-core.c:532:6
	cbz	x0, .LBB10_21
.Ltmp216:
// %bb.17:
	//DEBUG_VALUE: hisi_bkops_manual_gc_proc_init:bkops <- $x19
	//DEBUG_VALUE: hisi_bkops_enable:event_node <- $x23
	//DEBUG_VALUE: hisi_bkops_enable:blk_lld <- $x20
	//DEBUG_VALUE: hisi_bkops_enable:pdir <- $x22
	//DEBUG_VALUE: hisi_bkops_enable:bkops <- $x19
	//DEBUG_VALUE: hisi_bkops_enable:q <- $x21
	.loc	5 0 0 is_stmt 0         // kernel/block/hisi-bkops-core.c:0:0
	mov	x20, x0
.Ltmp217:
	//DEBUG_VALUE: hisi_bkops_manual_gc_proc_init:dir <- $x20
	.loc	5 537 2 is_stmt 1       // kernel/block/hisi-bkops-core.c:537:2
	adrp	x0, .L.str.17
	adrp	x3, hisi_bkops_manual_gc_fops
	add	x0, x0, :lo12:.L.str.17
	add	x3, x3, :lo12:hisi_bkops_manual_gc_fops
	mov	w1, #432
	mov	x2, x20
	bl	proc_create
	.loc	5 538 2                 // kernel/block/hisi-bkops-core.c:538:2
	adrp	x0, .L.str.18
	adrp	x3, hisi_bkops_status_fops
	add	x0, x0, :lo12:.L.str.18
	add	x3, x3, :lo12:hisi_bkops_status_fops
	mov	w1, #288
	mov	x2, x20
	mov	x4, x19
	bl	proc_create_data
.Ltmp218:
	.loc	5 0 0 is_stmt 0         // kernel/block/hisi-bkops-core.c:0:0
	mov	w0, wzr
	b	.LBB10_20
.Ltmp219:
.LBB10_18:
	//DEBUG_VALUE: hisi_bkops_enable:blk_lld <- $x20
	//DEBUG_VALUE: hisi_bkops_enable:pdir <- $x22
	//DEBUG_VALUE: hisi_bkops_enable:bkops <- $x19
	//DEBUG_VALUE: hisi_bkops_enable:q <- $x21
	.loc	5 570 3 is_stmt 1       // kernel/block/hisi-bkops-core.c:570:3
	adrp	x0, .L.str.10
	adrp	x1, .L__func__.hisi_bkops_enable
	add	x0, x0, :lo12:.L.str.10
	add	x1, x1, :lo12:.L__func__.hisi_bkops_enable
	mov	w2, #571
	bl	printk
.Ltmp220:
.LBB10_19:
	//DEBUG_VALUE: hisi_bkops_enable:pdir <- $x22
	//DEBUG_VALUE: hisi_bkops_enable:q <- $x21
	.loc	5 0 3 is_stmt 0         // kernel/block/hisi-bkops-core.c:0:3
	mov	w0, #-22
.Ltmp221:
.LBB10_20:
	//DEBUG_VALUE: hisi_bkops_enable:q <- $x21
	.loc	5 594 1 is_stmt 1       // kernel/block/hisi-bkops-core.c:594:1
	ldp	x29, x30, [sp, #48]     // 16-byte Folded Reload
	ldp	x20, x19, [sp, #32]     // 16-byte Folded Reload
	ldp	x22, x21, [sp, #16]     // 16-byte Folded Reload
.Ltmp222:
	ldp	x24, x23, [sp], #64     // 16-byte Folded Reload
	ret
.LBB10_21:
.Ltmp223:
	//DEBUG_VALUE: hisi_bkops_manual_gc_proc_init:bkops <- $x19
	//DEBUG_VALUE: hisi_bkops_enable:event_node <- $x23
	//DEBUG_VALUE: hisi_bkops_enable:blk_lld <- $x20
	//DEBUG_VALUE: hisi_bkops_enable:pdir <- $x22
	//DEBUG_VALUE: hisi_bkops_enable:bkops <- $x19
	//DEBUG_VALUE: hisi_bkops_enable:q <- $x21
	.loc	5 533 3                 // kernel/block/hisi-bkops-core.c:533:3
	adrp	x0, .L.str.16
	adrp	x1, .L__func__.hisi_bkops_manual_gc_proc_init
	add	x0, x0, :lo12:.L.str.16
	add	x1, x1, :lo12:.L__func__.hisi_bkops_manual_gc_proc_init
	mov	w2, #533
	bl	printk
.Ltmp224:
	.loc	5 0 0 is_stmt 0         // kernel/block/hisi-bkops-core.c:0:0
	mov	w0, wzr
	b	.LBB10_20
.Ltmp225:
.LBB10_22:
	//DEBUG_VALUE: hisi_bkops_enable:pdir <- $x22
	//DEBUG_VALUE: hisi_bkops_enable:bkops <- $x19
	//DEBUG_VALUE: hisi_bkops_enable:q <- $x21
	.loc	5 554 3 is_stmt 1       // kernel/block/hisi-bkops-core.c:554:3
	adrp	x0, .L.str.7
	add	x0, x0, :lo12:.L.str.7
.Ltmp226:
	.loc	5 0 0 is_stmt 0         // kernel/block/hisi-bkops-core.c:0:0
	bl	printk
	b	.LBB10_19
.Ltmp227:
.Lfunc_end10:
	.size	hisi_bkops_enable, .Lfunc_end10-hisi_bkops_enable
	.cfi_endproc
                                        // -- End function
	.globl	blk_mq_tagset_tz_query_register // -- Begin function blk_mq_tagset_tz_query_register
	.p2align	2
	.type	blk_mq_tagset_tz_query_register,@function
blk_mq_tagset_tz_query_register:        // @blk_mq_tagset_tz_query_register
.Lfunc_begin11:
	.loc	5 598 0 is_stmt 1       // kernel/block/hisi-bkops-core.c:598:0
	.cfi_startproc
// %bb.0:
	//DEBUG_VALUE: blk_mq_tagset_tz_query_register:tag_set <- $x0
	//DEBUG_VALUE: blk_mq_tagset_tz_query_register:tag_set <- $x0
	//DEBUG_VALUE: blk_mq_tagset_tz_query_register:func <- $x1
	//DEBUG_VALUE: blk_mq_tagset_tz_query_register:func <- $x1
	.loc	5 599 6 prologue_end    // kernel/block/hisi-bkops-core.c:599:6
	cbz	x0, .LBB11_2
// %bb.1:
	//DEBUG_VALUE: blk_mq_tagset_tz_query_register:func <- $x1
	//DEBUG_VALUE: blk_mq_tagset_tz_query_register:tag_set <- $x0
.Ltmp228:
	.loc	5 600 30                // kernel/block/hisi-bkops-core.c:600:30
	str	x1, [x0, #80]
.Ltmp229:
.LBB11_2:
	//DEBUG_VALUE: blk_mq_tagset_tz_query_register:func <- $x1
	//DEBUG_VALUE: blk_mq_tagset_tz_query_register:tag_set <- $x0
	.loc	5 601 1                 // kernel/block/hisi-bkops-core.c:601:1
	ret
.Ltmp230:
.Lfunc_end11:
	.size	blk_mq_tagset_tz_query_register, .Lfunc_end11-blk_mq_tagset_tz_query_register
	.cfi_endproc
                                        // -- End function
	.globl	blk_lld_tz_query        // -- Begin function blk_lld_tz_query
	.p2align	2
	.type	blk_lld_tz_query,@function
blk_lld_tz_query:                       // @blk_lld_tz_query
.Lfunc_begin12:
	.loc	5 605 0                 // kernel/block/hisi-bkops-core.c:605:0
	.cfi_startproc
// %bb.0:
	//DEBUG_VALUE: blk_lld_tz_query:bi_bdev <- $x0
	//DEBUG_VALUE: blk_lld_tz_query:type <- $w1
	//DEBUG_VALUE: blk_lld_tz_query:buf <- $x2
	//DEBUG_VALUE: blk_lld_tz_query:buf_len <- $w3
	stp	x22, x21, [sp, #-48]!   // 16-byte Folded Spill
	stp	x20, x19, [sp, #16]     // 16-byte Folded Spill
	stp	x29, x30, [sp, #32]     // 16-byte Folded Spill
	add	x29, sp, #32            // =32
	.cfi_def_cfa w29, 16
	.cfi_offset w30, -8
	.cfi_offset w29, -16
	.cfi_offset w19, -24
	.cfi_offset w20, -32
	.cfi_offset w21, -40
	.cfi_offset w22, -48
	mov	x8, x0
	mov	w0, #-1
.Ltmp231:
	//DEBUG_VALUE: blk_lld_tz_query:q <- 0
	//DEBUG_VALUE: blk_lld_tz_query:lld_fn <- 0
	//DEBUG_VALUE: blk_lld_tz_query:bi_bdev <- $x8
	.loc	5 609 15 prologue_end   // kernel/block/hisi-bkops-core.c:609:15
	cbz	x8, .LBB12_7
.Ltmp232:
// %bb.1:
	//DEBUG_VALUE: blk_lld_tz_query:bi_bdev <- $x8
	//DEBUG_VALUE: blk_lld_tz_query:buf_len <- $w3
	//DEBUG_VALUE: blk_lld_tz_query:buf <- $x2
	//DEBUG_VALUE: blk_lld_tz_query:type <- $w1
	.loc	5 0 15 is_stmt 0        // kernel/block/hisi-bkops-core.c:0:15
	mov	x20, x2
.Ltmp233:
	//DEBUG_VALUE: blk_lld_tz_query:buf <- $x20
	.loc	5 609 15                // kernel/block/hisi-bkops-core.c:609:15
	cbz	x2, .LBB12_7
.Ltmp234:
// %bb.2:
	//DEBUG_VALUE: blk_lld_tz_query:buf <- $x20
	//DEBUG_VALUE: blk_lld_tz_query:bi_bdev <- $x8
	//DEBUG_VALUE: blk_lld_tz_query:buf_len <- $w3
	//DEBUG_VALUE: blk_lld_tz_query:type <- $w1
	//DEBUG_VALUE: bdev_get_queue:bdev <- $x8
	.loc	78 1464 15 is_stmt 1    // kernel/include/linux/blkdev.h:1464:15
	ldr	x8, [x8, #160]
.Ltmp235:
	.loc	78 1464 24 is_stmt 0    // kernel/include/linux/blkdev.h:1464:24
	ldr	x22, [x8, #1112]
.Ltmp236:
	//DEBUG_VALUE: blk_lld_tz_query:q <- $x22
	.loc	5 612 6 is_stmt 1       // kernel/block/hisi-bkops-core.c:612:6
	cbz	x22, .LBB12_6
.Ltmp237:
// %bb.3:
	//DEBUG_VALUE: blk_lld_tz_query:q <- $x22
	//DEBUG_VALUE: blk_lld_tz_query:buf <- $x20
	//DEBUG_VALUE: blk_lld_tz_query:buf_len <- $w3
	//DEBUG_VALUE: blk_lld_tz_query:type <- $w1
	.loc	5 615 11                // kernel/block/hisi-bkops-core.c:615:11
	mov	x0, x22
	mov	w19, w3
.Ltmp238:
	//DEBUG_VALUE: blk_lld_tz_query:buf_len <- $w19
	.loc	5 0 11 is_stmt 0        // kernel/block/hisi-bkops-core.c:0:11
	mov	w21, w1
.Ltmp239:
	//DEBUG_VALUE: blk_lld_tz_query:type <- $w21
	.loc	5 615 11                // kernel/block/hisi-bkops-core.c:615:11
	bl	hisi_blk_get_lld
.Ltmp240:
	//DEBUG_VALUE: blk_lld_tz_query:lld_fn <- $x0
	.loc	5 616 13 is_stmt 1      // kernel/block/hisi-bkops-core.c:616:13
	cbz	x0, .LBB12_6
.Ltmp241:
// %bb.4:
	//DEBUG_VALUE: blk_lld_tz_query:lld_fn <- $x0
	//DEBUG_VALUE: blk_lld_tz_query:type <- $w21
	//DEBUG_VALUE: blk_lld_tz_query:buf_len <- $w19
	//DEBUG_VALUE: blk_lld_tz_query:q <- $x22
	//DEBUG_VALUE: blk_lld_tz_query:buf <- $x20
	.loc	5 616 24 is_stmt 0      // kernel/block/hisi-bkops-core.c:616:24
	ldr	x8, [x0, #64]
.Ltmp242:
	.loc	5 616 6                 // kernel/block/hisi-bkops-core.c:616:6
	cbz	x8, .LBB12_6
.Ltmp243:
// %bb.5:
	//DEBUG_VALUE: blk_lld_tz_query:lld_fn <- $x0
	//DEBUG_VALUE: blk_lld_tz_query:type <- $w21
	//DEBUG_VALUE: blk_lld_tz_query:buf_len <- $w19
	//DEBUG_VALUE: blk_lld_tz_query:q <- $x22
	//DEBUG_VALUE: blk_lld_tz_query:buf <- $x20
	.loc	5 617 10 is_stmt 1      // kernel/block/hisi-bkops-core.c:617:10
	mov	x0, x22
.Ltmp244:
	mov	w1, w21
	mov	x2, x20
	mov	w3, w19
	blr	x8
	b	.LBB12_7
.Ltmp245:
.LBB12_6:
	//DEBUG_VALUE: blk_lld_tz_query:q <- $x22
	//DEBUG_VALUE: blk_lld_tz_query:buf <- $x20
	.loc	5 0 10 is_stmt 0        // kernel/block/hisi-bkops-core.c:0:10
	mov	w0, #-1
.Ltmp246:
.LBB12_7:
	.loc	5 620 1 is_stmt 1       // kernel/block/hisi-bkops-core.c:620:1
	ldp	x29, x30, [sp, #32]     // 16-byte Folded Reload
	ldp	x20, x19, [sp, #16]     // 16-byte Folded Reload
	ldp	x22, x21, [sp], #48     // 16-byte Folded Reload
	ret
.Ltmp247:
.Lfunc_end12:
	.size	blk_lld_tz_query, .Lfunc_end12-blk_lld_tz_query
	.cfi_endproc
                                        // -- End function
	.globl	blk_mq_tagset_tz_ctrl_register // -- Begin function blk_mq_tagset_tz_ctrl_register
	.p2align	2
	.type	blk_mq_tagset_tz_ctrl_register,@function
blk_mq_tagset_tz_ctrl_register:         // @blk_mq_tagset_tz_ctrl_register
.Lfunc_begin13:
	.loc	5 624 0                 // kernel/block/hisi-bkops-core.c:624:0
	.cfi_startproc
// %bb.0:
	//DEBUG_VALUE: blk_mq_tagset_tz_ctrl_register:tag_set <- $x0
	//DEBUG_VALUE: blk_mq_tagset_tz_ctrl_register:tag_set <- $x0
	//DEBUG_VALUE: blk_mq_tagset_tz_ctrl_register:func <- $x1
	//DEBUG_VALUE: blk_mq_tagset_tz_ctrl_register:func <- $x1
	.loc	5 625 6 prologue_end    // kernel/block/hisi-bkops-core.c:625:6
	cbz	x0, .LBB13_2
// %bb.1:
	//DEBUG_VALUE: blk_mq_tagset_tz_ctrl_register:func <- $x1
	//DEBUG_VALUE: blk_mq_tagset_tz_ctrl_register:tag_set <- $x0
.Ltmp248:
	.loc	5 626 29                // kernel/block/hisi-bkops-core.c:626:29
	str	x1, [x0, #88]
.Ltmp249:
.LBB13_2:
	//DEBUG_VALUE: blk_mq_tagset_tz_ctrl_register:func <- $x1
	//DEBUG_VALUE: blk_mq_tagset_tz_ctrl_register:tag_set <- $x0
	.loc	5 627 1                 // kernel/block/hisi-bkops-core.c:627:1
	ret
.Ltmp250:
.Lfunc_end13:
	.size	blk_mq_tagset_tz_ctrl_register, .Lfunc_end13-blk_mq_tagset_tz_ctrl_register
	.cfi_endproc
                                        // -- End function
	.globl	blk_lld_tz_ctrl         // -- Begin function blk_lld_tz_ctrl
	.p2align	2
	.type	blk_lld_tz_ctrl,@function
blk_lld_tz_ctrl:                        // @blk_lld_tz_ctrl
.Lfunc_begin14:
	.loc	5 631 0                 // kernel/block/hisi-bkops-core.c:631:0
	.cfi_startproc
// %bb.0:
	//DEBUG_VALUE: blk_lld_tz_ctrl:bi_bdev <- $x0
	//DEBUG_VALUE: blk_lld_tz_ctrl:desc_id <- $w1
	//DEBUG_VALUE: blk_lld_tz_ctrl:index <- $w2
	//DEBUG_VALUE: blk_lld_tz_ctrl:bi_bdev <- $x0
	str	x21, [sp, #-48]!        // 8-byte Folded Spill
	stp	x20, x19, [sp, #16]     // 16-byte Folded Spill
	stp	x29, x30, [sp, #32]     // 16-byte Folded Spill
	add	x29, sp, #32            // =32
	.cfi_def_cfa w29, 16
	.cfi_offset w30, -8
	.cfi_offset w29, -16
	.cfi_offset w19, -24
	.cfi_offset w20, -32
	.cfi_offset w21, -48
.Ltmp251:
	//DEBUG_VALUE: blk_lld_tz_ctrl:q <- 0
	//DEBUG_VALUE: blk_lld_tz_ctrl:lld_fn <- 0
	.loc	5 635 6 prologue_end    // kernel/block/hisi-bkops-core.c:635:6
	cbz	x0, .LBB14_5
.Ltmp252:
// %bb.1:
	//DEBUG_VALUE: blk_lld_tz_ctrl:index <- $w2
	//DEBUG_VALUE: blk_lld_tz_ctrl:desc_id <- $w1
	//DEBUG_VALUE: blk_lld_tz_ctrl:bi_bdev <- $x0
	//DEBUG_VALUE: bdev_get_queue:bdev <- $x0
	.loc	78 1464 15              // kernel/include/linux/blkdev.h:1464:15
	ldr	x8, [x0, #160]
	.loc	78 1464 24 is_stmt 0    // kernel/include/linux/blkdev.h:1464:24
	ldr	x21, [x8, #1112]
.Ltmp253:
	//DEBUG_VALUE: blk_lld_tz_ctrl:q <- $x21
	.loc	5 638 6 is_stmt 1       // kernel/block/hisi-bkops-core.c:638:6
	cbz	x21, .LBB14_5
.Ltmp254:
// %bb.2:
	//DEBUG_VALUE: blk_lld_tz_ctrl:q <- $x21
	//DEBUG_VALUE: blk_lld_tz_ctrl:index <- $w2
	//DEBUG_VALUE: blk_lld_tz_ctrl:desc_id <- $w1
	//DEBUG_VALUE: blk_lld_tz_ctrl:bi_bdev <- $x0
	.loc	5 641 11                // kernel/block/hisi-bkops-core.c:641:11
	mov	x0, x21
.Ltmp255:
	.loc	5 0 11 is_stmt 0        // kernel/block/hisi-bkops-core.c:0:11
	mov	w19, w2
.Ltmp256:
	//DEBUG_VALUE: blk_lld_tz_ctrl:index <- $w19
	mov	w20, w1
.Ltmp257:
	//DEBUG_VALUE: blk_lld_tz_ctrl:desc_id <- $w20
	.loc	5 641 11                // kernel/block/hisi-bkops-core.c:641:11
	bl	hisi_blk_get_lld
.Ltmp258:
	//DEBUG_VALUE: blk_lld_tz_ctrl:lld_fn <- $x0
	.loc	5 642 13 is_stmt 1      // kernel/block/hisi-bkops-core.c:642:13
	cbz	x0, .LBB14_5
.Ltmp259:
// %bb.3:
	//DEBUG_VALUE: blk_lld_tz_ctrl:lld_fn <- $x0
	//DEBUG_VALUE: blk_lld_tz_ctrl:desc_id <- $w20
	//DEBUG_VALUE: blk_lld_tz_ctrl:index <- $w19
	//DEBUG_VALUE: blk_lld_tz_ctrl:q <- $x21
	.loc	5 642 24 is_stmt 0      // kernel/block/hisi-bkops-core.c:642:24
	ldr	x8, [x0, #72]
.Ltmp260:
	.loc	5 642 6                 // kernel/block/hisi-bkops-core.c:642:6
	cbz	x8, .LBB14_5
.Ltmp261:
// %bb.4:
	//DEBUG_VALUE: blk_lld_tz_ctrl:lld_fn <- $x0
	//DEBUG_VALUE: blk_lld_tz_ctrl:desc_id <- $w20
	//DEBUG_VALUE: blk_lld_tz_ctrl:index <- $w19
	//DEBUG_VALUE: blk_lld_tz_ctrl:q <- $x21
	//DEBUG_VALUE: blk_lld_tz_ctrl:index <- $w19
	.loc	5 643 10 is_stmt 1      // kernel/block/hisi-bkops-core.c:643:10
	mov	x0, x21
.Ltmp262:
	mov	w1, w20
	mov	w2, w19
	blr	x8
	b	.LBB14_6
.Ltmp263:
.LBB14_5:
	.loc	5 0 10 is_stmt 0        // kernel/block/hisi-bkops-core.c:0:10
	mov	w0, #-1
.LBB14_6:
	.loc	5 646 1 is_stmt 1       // kernel/block/hisi-bkops-core.c:646:1
	ldp	x29, x30, [sp, #32]     // 16-byte Folded Reload
	ldp	x20, x19, [sp, #16]     // 16-byte Folded Reload
	ldr	x21, [sp], #48          // 8-byte Folded Reload
	ret
.Ltmp264:
.Lfunc_end14:
	.size	blk_lld_tz_ctrl, .Lfunc_end14-blk_lld_tz_ctrl
	.cfi_endproc
                                        // -- End function
	.globl	blk_mq_tagset_health_query_register // -- Begin function blk_mq_tagset_health_query_register
	.p2align	2
	.type	blk_mq_tagset_health_query_register,@function
blk_mq_tagset_health_query_register:    // @blk_mq_tagset_health_query_register
.Lfunc_begin15:
	.loc	5 663 0                 // kernel/block/hisi-bkops-core.c:663:0
	.cfi_startproc
// %bb.0:
	//DEBUG_VALUE: blk_mq_tagset_health_query_register:tag_set <- $x0
	//DEBUG_VALUE: blk_mq_tagset_health_query_register:tag_set <- $x0
	//DEBUG_VALUE: blk_mq_tagset_health_query_register:func <- $x1
	//DEBUG_VALUE: blk_mq_tagset_health_query_register:func <- $x1
	.loc	5 664 6 prologue_end    // kernel/block/hisi-bkops-core.c:664:6
	cbz	x0, .LBB15_2
// %bb.1:
	//DEBUG_VALUE: blk_mq_tagset_health_query_register:func <- $x1
	//DEBUG_VALUE: blk_mq_tagset_health_query_register:tag_set <- $x0
.Ltmp265:
	.loc	5 665 34                // kernel/block/hisi-bkops-core.c:665:34
	str	x1, [x0, #96]
.Ltmp266:
.LBB15_2:
	//DEBUG_VALUE: blk_mq_tagset_health_query_register:func <- $x1
	//DEBUG_VALUE: blk_mq_tagset_health_query_register:tag_set <- $x0
	.loc	5 666 1                 // kernel/block/hisi-bkops-core.c:666:1
	ret
.Ltmp267:
.Lfunc_end15:
	.size	blk_mq_tagset_health_query_register, .Lfunc_end15-blk_mq_tagset_health_query_register
	.cfi_endproc
                                        // -- End function
	.globl	blk_lld_health_query    // -- Begin function blk_lld_health_query
	.p2align	2
	.type	blk_lld_health_query,@function
blk_lld_health_query:                   // @blk_lld_health_query
.Lfunc_begin16:
	.loc	5 670 0                 // kernel/block/hisi-bkops-core.c:670:0
	.cfi_startproc
// %bb.0:
	//DEBUG_VALUE: blk_lld_health_query:bi_bdev <- $x0
	//DEBUG_VALUE: blk_lld_health_query:pre_eol_info <- $x1
	//DEBUG_VALUE: blk_lld_health_query:life_time_est_a <- $x2
	//DEBUG_VALUE: blk_lld_health_query:life_time_est_b <- $x3
	stp	x22, x21, [sp, #-48]!   // 16-byte Folded Spill
	stp	x20, x19, [sp, #16]     // 16-byte Folded Spill
	stp	x29, x30, [sp, #32]     // 16-byte Folded Spill
	add	x29, sp, #32            // =32
	.cfi_def_cfa w29, 16
	.cfi_offset w30, -8
	.cfi_offset w29, -16
	.cfi_offset w19, -24
	.cfi_offset w20, -32
	.cfi_offset w21, -40
	.cfi_offset w22, -48
	mov	x8, x0
	mov	w0, #-1
.Ltmp268:
	//DEBUG_VALUE: blk_lld_health_query:q <- 0
	//DEBUG_VALUE: blk_lld_health_query:lld_fn <- 0
	//DEBUG_VALUE: blk_lld_health_query:bi_bdev <- $x8
	.loc	5 674 17 prologue_end   // kernel/block/hisi-bkops-core.c:674:17
	cbz	x8, .LBB16_8
.Ltmp269:
// %bb.1:
	//DEBUG_VALUE: blk_lld_health_query:bi_bdev <- $x8
	//DEBUG_VALUE: blk_lld_health_query:life_time_est_b <- $x3
	//DEBUG_VALUE: blk_lld_health_query:life_time_est_a <- $x2
	//DEBUG_VALUE: blk_lld_health_query:pre_eol_info <- $x1
	.loc	5 0 17 is_stmt 0        // kernel/block/hisi-bkops-core.c:0:17
	mov	x21, x1
.Ltmp270:
	//DEBUG_VALUE: blk_lld_health_query:pre_eol_info <- $x21
	.loc	5 674 17                // kernel/block/hisi-bkops-core.c:674:17
	cbz	x1, .LBB16_8
.Ltmp271:
// %bb.2:
	//DEBUG_VALUE: blk_lld_health_query:pre_eol_info <- $x21
	//DEBUG_VALUE: blk_lld_health_query:bi_bdev <- $x8
	//DEBUG_VALUE: blk_lld_health_query:life_time_est_b <- $x3
	//DEBUG_VALUE: blk_lld_health_query:life_time_est_a <- $x2
	.loc	5 0 17                  // kernel/block/hisi-bkops-core.c:0:17
	mov	x20, x2
.Ltmp272:
	//DEBUG_VALUE: blk_lld_health_query:life_time_est_a <- $x20
	.loc	5 674 17                // kernel/block/hisi-bkops-core.c:674:17
	cbz	x2, .LBB16_8
.Ltmp273:
// %bb.3:
	//DEBUG_VALUE: blk_lld_health_query:life_time_est_a <- $x20
	//DEBUG_VALUE: blk_lld_health_query:pre_eol_info <- $x21
	//DEBUG_VALUE: blk_lld_health_query:bi_bdev <- $x8
	//DEBUG_VALUE: blk_lld_health_query:life_time_est_b <- $x3
	.loc	5 0 17                  // kernel/block/hisi-bkops-core.c:0:17
	mov	x19, x3
.Ltmp274:
	//DEBUG_VALUE: blk_lld_health_query:life_time_est_b <- $x19
	.loc	5 674 17                // kernel/block/hisi-bkops-core.c:674:17
	cbz	x3, .LBB16_8
.Ltmp275:
// %bb.4:
	//DEBUG_VALUE: blk_lld_health_query:life_time_est_b <- $x19
	//DEBUG_VALUE: blk_lld_health_query:life_time_est_a <- $x20
	//DEBUG_VALUE: blk_lld_health_query:pre_eol_info <- $x21
	//DEBUG_VALUE: blk_lld_health_query:bi_bdev <- $x8
	//DEBUG_VALUE: bdev_get_queue:bdev <- $x8
	.loc	78 1464 15 is_stmt 1    // kernel/include/linux/blkdev.h:1464:15
	ldr	x8, [x8, #160]
.Ltmp276:
	.loc	78 1464 24 is_stmt 0    // kernel/include/linux/blkdev.h:1464:24
	ldr	x22, [x8, #1112]
.Ltmp277:
	//DEBUG_VALUE: blk_lld_health_query:q <- $x22
	.loc	5 679 11 is_stmt 1      // kernel/block/hisi-bkops-core.c:679:11
	mov	x0, x22
	bl	hisi_blk_get_lld
.Ltmp278:
	//DEBUG_VALUE: blk_lld_health_query:lld_fn <- $x0
	.loc	5 680 13                // kernel/block/hisi-bkops-core.c:680:13
	cbz	x0, .LBB16_7
.Ltmp279:
// %bb.5:
	//DEBUG_VALUE: blk_lld_health_query:lld_fn <- $x0
	//DEBUG_VALUE: blk_lld_health_query:q <- $x22
	//DEBUG_VALUE: blk_lld_health_query:life_time_est_b <- $x19
	//DEBUG_VALUE: blk_lld_health_query:life_time_est_a <- $x20
	//DEBUG_VALUE: blk_lld_health_query:pre_eol_info <- $x21
	.loc	5 680 24 is_stmt 0      // kernel/block/hisi-bkops-core.c:680:24
	ldr	x8, [x0, #80]
.Ltmp280:
	.loc	5 680 6                 // kernel/block/hisi-bkops-core.c:680:6
	cbz	x8, .LBB16_7
.Ltmp281:
// %bb.6:
	//DEBUG_VALUE: blk_lld_health_query:lld_fn <- $x0
	//DEBUG_VALUE: blk_lld_health_query:q <- $x22
	//DEBUG_VALUE: blk_lld_health_query:life_time_est_b <- $x19
	//DEBUG_VALUE: blk_lld_health_query:life_time_est_a <- $x20
	//DEBUG_VALUE: blk_lld_health_query:pre_eol_info <- $x21
	.loc	5 681 10 is_stmt 1      // kernel/block/hisi-bkops-core.c:681:10
	mov	x0, x22
.Ltmp282:
	mov	x1, x21
	mov	x2, x20
	mov	x3, x19
	blr	x8
	b	.LBB16_8
.Ltmp283:
.LBB16_7:
	//DEBUG_VALUE: blk_lld_health_query:lld_fn <- $x0
	//DEBUG_VALUE: blk_lld_health_query:q <- $x22
	//DEBUG_VALUE: blk_lld_health_query:life_time_est_b <- $x19
	//DEBUG_VALUE: blk_lld_health_query:life_time_est_a <- $x20
	//DEBUG_VALUE: blk_lld_health_query:pre_eol_info <- $x21
	.loc	5 0 10 is_stmt 0        // kernel/block/hisi-bkops-core.c:0:10
	mov	w0, #-1
.Ltmp284:
.LBB16_8:
	.loc	5 685 1 is_stmt 1       // kernel/block/hisi-bkops-core.c:685:1
	ldp	x29, x30, [sp, #32]     // 16-byte Folded Reload
	ldp	x20, x19, [sp, #16]     // 16-byte Folded Reload
	ldp	x22, x21, [sp], #48     // 16-byte Folded Reload
	ret
.Ltmp285:
.Lfunc_end16:
	.size	blk_lld_health_query, .Lfunc_end16-blk_lld_health_query
	.cfi_endproc
                                        // -- End function
	.type	.L.str,@object          // @.str
	.section	.rodata.str1.1,"aMS",@progbits,1
.L.str:
	.asciz	"\0013[BKOPS]hisi_bkops_query failed!\n"
	.size	.L.str, 35

	.type	.L.str.1,@object        // @.str.1
.L.str.1:
	.asciz	"\0013[BKOPS]hisi_bkops_start failed!\n"
	.size	.L.str.1, 35

	.type	bkops_workqueue_g,@object // @bkops_workqueue_g
	.local	bkops_workqueue_g
	.comm	bkops_workqueue_g,8,8
	.type	bkops_io_busyidle_notify_handler._rs,@object // @bkops_io_busyidle_notify_handler._rs
	.data
	.p2align	3
bkops_io_busyidle_notify_handler._rs:
	.zero	4
	.word	3735899821              // 0xdead4ead
	.word	4294967295              // 0xffffffff
	.zero	4
	.xword	-1
	.word	1250                    // 0x4e2
	.word	10                      // 0xa
	.word	0                       // 0x0
	.word	0                       // 0x0
	.xword	0                       // 0x0
	.xword	0                       // 0x0
	.size	bkops_io_busyidle_notify_handler._rs, 56

	.type	.L__func__.bkops_io_busyidle_notify_handler,@object // @__func__.bkops_io_busyidle_notify_handler
	.section	.rodata.str1.1,"aMS",@progbits,1
.L__func__.bkops_io_busyidle_notify_handler:
	.asciz	"bkops_io_busyidle_notify_handler"
	.size	.L__func__.bkops_io_busyidle_notify_handler, 33

	.type	.L.str.2,@object        // @.str.2
.L.str.2:
	.asciz	"\0013[BKOPS]%s unknown state: %d\n"
	.size	.L.str.2, 31

	.type	.L.str.3,@object        // @.str.3
.L.str.3:
	.asciz	"\0013[BKOPS]Failed to alloc bkops_func\n"
	.size	.L.str.3, 37

	.type	.L.str.4,@object        // @.str.4
.L.str.4:
	.asciz	"%d\n"
	.size	.L.str.4, 4

	.type	user_manual_gc,@object  // @user_manual_gc
	.local	user_manual_gc
	.comm	user_manual_gc,1,4
	.type	.L.str.5,@object        // @.str.5
.L.str.5:
	.asciz	"\0013[BKOPS]%s %d: input error.\n"
	.size	.L.str.5, 30

	.type	.L__func__.hisi_bkops_manual_gc_proc_write,@object // @__func__.hisi_bkops_manual_gc_proc_write
.L__func__.hisi_bkops_manual_gc_proc_write:
	.asciz	"hisi_bkops_manual_gc_proc_write"
	.size	.L__func__.hisi_bkops_manual_gc_proc_write, 32

	.type	.L.str.6,@object        // @.str.6
.L.str.6:
	.asciz	"%u\n"
	.size	.L.str.6, 4

	.type	.L.str.7,@object        // @.str.7
.L.str.7:
	.asciz	"\0013[BKOPS]Busy Idle was not enabled!\n"
	.size	.L.str.7, 37

	.type	.L.str.8,@object        // @.str.8
.L.str.8:
	.asciz	"\0013[BKOPS]bkops dev type not specified!\n"
	.size	.L.str.8, 40

	.type	.L.str.9,@object        // @.str.9
.L.str.9:
	.asciz	"\0013[BKOPS]bkops_ops is NULL!\n"
	.size	.L.str.9, 29

	.type	.L.str.10,@object       // @.str.10
.L.str.10:
	.asciz	"\0013[BKOPS]%s %d hisi_bkops_init failed!\n"
	.size	.L.str.10, 40

	.type	.L__func__.hisi_bkops_enable,@object // @__func__.hisi_bkops_enable
.L__func__.hisi_bkops_enable:
	.asciz	"hisi_bkops_enable"
	.size	.L__func__.hisi_bkops_enable, 18

	.type	.L.str.11,@object       // @.str.11
.L.str.11:
	.asciz	"\0013[BKOPS]Failed to create mmc bkops debugfs!\n"
	.size	.L.str.11, 46

	.type	.L.str.12,@object       // @.str.12
.L.str.12:
	.asciz	"hisi_bkops"
	.size	.L.str.12, 11

	.type	bkops_lock,@object      // @bkops_lock
	.data
	.p2align	3
bkops_lock:
	.zero	8
	.zero	4
	.word	3735899821              // 0xdead4ead
	.word	4294967295              // 0xffffffff
	.zero	4
	.xword	-1
	.zero	4
	.zero	4
	.xword	bkops_lock+40
	.xword	bkops_lock+40
	.xword	0
	.size	bkops_lock, 64

	.type	bkops_enabled,@object   // @bkops_enabled
	.local	bkops_enabled
	.comm	bkops_enabled,1,1
	.type	hisi_bkops_inited,@object // @hisi_bkops_inited
	.local	hisi_bkops_inited
	.comm	hisi_bkops_inited,1,4
	.type	.L.str.14,@object       // @.str.14
	.section	.rodata.str1.1,"aMS",@progbits,1
.L.str.14:
	.asciz	"bkops_workqueue"
	.size	.L.str.14, 16

	.type	bkops_pm_notifier,@object // @bkops_pm_notifier
	.data
	.p2align	3
bkops_pm_notifier:
	.xword	__cfi_bkops_pm_callback
	.xword	0
	.word	0                       // 0x0
	.zero	4
	.size	bkops_pm_notifier, 24

	.type	bkops_reboot_notifier,@object // @bkops_reboot_notifier
	.p2align	3
bkops_reboot_notifier:
	.xword	__cfi_bkops_notify_reboot
	.xword	0
	.word	2147483647              // 0x7fffffff
	.zero	4
	.size	bkops_reboot_notifier, 24

	.type	.L.str.15,@object       // @.str.15
	.section	.rodata.str1.1,"aMS",@progbits,1
.L.str.15:
	.asciz	"block"
	.size	.L.str.15, 6

	.type	.L.str.16,@object       // @.str.16
.L.str.16:
	.asciz	"\0013[BKOPS]%s %d: proc mk error.\n"
	.size	.L.str.16, 32

	.type	.L__func__.hisi_bkops_manual_gc_proc_init,@object // @__func__.hisi_bkops_manual_gc_proc_init
.L__func__.hisi_bkops_manual_gc_proc_init:
	.asciz	"hisi_bkops_manual_gc_proc_init"
	.size	.L__func__.hisi_bkops_manual_gc_proc_init, 31

	.type	.L.str.17,@object       // @.str.17
.L.str.17:
	.asciz	"manual_gc"
	.size	.L.str.17, 10

	.type	hisi_bkops_manual_gc_fops,@object // @hisi_bkops_manual_gc_fops
	.section	.rodata,"a",@progbits
	.p2align	3
hisi_bkops_manual_gc_fops:
	.xword	0
	.xword	seq_lseek
	.xword	seq_read
	.xword	__cfi_hisi_bkops_manual_gc_proc_write
	.xword	0
	.xword	0
	.xword	0
	.xword	0
	.xword	0
	.xword	0
	.xword	0
	.xword	0
	.xword	__cfi_hisi_bkops_manual_gc_proc_open
	.xword	0
	.xword	single_release
	.xword	0
	.xword	0
	.xword	0
	.xword	0
	.xword	0
	.xword	0
	.xword	0
	.xword	0
	.xword	0
	.xword	0
	.xword	0
	.xword	0
	.xword	0
	.xword	0
	.xword	0
	.size	hisi_bkops_manual_gc_fops, 240

	.type	.L.str.18,@object       // @.str.18
	.section	.rodata.str1.1,"aMS",@progbits,1
.L.str.18:
	.asciz	"status"
	.size	.L.str.18, 7

	.type	hisi_bkops_status_fops,@object // @hisi_bkops_status_fops
	.section	.rodata,"a",@progbits
	.p2align	3
hisi_bkops_status_fops:
	.xword	0
	.xword	seq_lseek
	.xword	seq_read
	.xword	0
	.xword	0
	.xword	0
	.xword	0
	.xword	0
	.xword	0
	.xword	0
	.xword	0
	.xword	0
	.xword	__cfi_hisi_bkops_status_proc_open
	.xword	0
	.xword	single_release
	.xword	0
	.xword	0
	.xword	0
	.xword	0
	.xword	0
	.xword	0
	.xword	0
	.xword	0
	.xword	0
	.xword	0
	.xword	0
	.xword	0
	.xword	0
	.xword	0
	.xword	0
	.size	hisi_bkops_status_fops, 240
