	.text
	.file	"hisi-blk-flush.c"
                                        // Start of file scope inline assembly
	.section "___kcrctab_gpl+blk_power_off_flush", "a"	
	.weak	__crc_blk_power_off_flush	
	.long	__crc_blk_power_off_flush	
	.previous					
	.section "___kcrctab+hisi_blk_panic_flush", "a"	
	.weak	__crc_hisi_blk_panic_flush	
	.long	__crc_hisi_blk_panic_flush	
	.previous					
	.section "___kcrctab_gpl+blk_mq_tagset_direct_flush_register", "a"	
	.weak	__crc_blk_mq_tagset_direct_flush_register	
	.long	__crc_blk_mq_tagset_direct_flush_register	
	.previous					
	.section "___kcrctab_gpl+blk_flush_set_async", "a"	
	.weak	__crc_blk_flush_set_async	
	.long	__crc_blk_flush_set_async	
	.previous					
	.section "___kcrctab_gpl+blk_mq_tagset_flush_reduce_config", "a"	
	.weak	__crc_blk_mq_tagset_flush_reduce_config	
	.long	__crc_blk_mq_tagset_flush_reduce_config	
	.previous					
	.section "___kcrctab_gpl+blk_flush_async_support", "a"	
	.weak	__crc_blk_flush_async_support	
	.long	__crc_blk_flush_async_support	
	.previous					

                                        // End of file scope inline assembly
	.file	1 "/mnt/disk/jenkins/ci/workspace/chipset_pipeline_release/opensource/component_code/vendor/huawei/extra/build/build_script/kirin_kernel_release/kernel/include/linux/export.h"
	.file	2 "/mnt/disk/jenkins/ci/workspace/chipset_pipeline_release/opensource/component_code/vendor/huawei/extra/build/build_script/kirin_kernel_release/kernel/block/hisi-blk-flush.c"
	.file	3 "/mnt/disk/jenkins/ci/workspace/chipset_pipeline_release/opensource/component_code/vendor/huawei/extra/build/build_script/kirin_kernel_release/kernel/include/linux/init.h"
	.file	4 "/mnt/disk/jenkins/ci/workspace/chipset_pipeline_release/opensource/component_code/vendor/huawei/extra/build/build_script/kirin_kernel_release/kernel/include/asm-generic/int-ll64.h"
	.file	5 "/mnt/disk/jenkins/ci/workspace/chipset_pipeline_release/opensource/component_code/vendor/huawei/extra/build/build_script/kirin_kernel_release/kernel/arch/arm64/include/asm/spinlock_types.h"
	.file	6 "/mnt/disk/jenkins/ci/workspace/chipset_pipeline_release/opensource/component_code/vendor/huawei/extra/build/build_script/kirin_kernel_release/kernel/include/linux/spinlock_types.h"
	.file	7 "/mnt/disk/jenkins/ci/workspace/chipset_pipeline_release/opensource/component_code/vendor/huawei/extra/build/build_script/kirin_kernel_release/kernel/include/linux/types.h"
	.file	8 "/mnt/disk/jenkins/ci/workspace/chipset_pipeline_release/opensource/component_code/vendor/huawei/extra/build/build_script/kirin_kernel_release/kernel/include/linux/notifier.h"
	.file	9 "/mnt/disk/jenkins/ci/workspace/chipset_pipeline_release/opensource/component_code/vendor/huawei/extra/build/build_script/kirin_kernel_release/kernel/include/linux/kobject_ns.h"
	.file	10 "/mnt/disk/jenkins/ci/workspace/chipset_pipeline_release/opensource/component_code/vendor/huawei/extra/build/build_script/kirin_kernel_release/kernel/include/linux/hrtimer.h"
	.file	11 "/mnt/disk/jenkins/ci/workspace/chipset_pipeline_release/opensource/component_code/vendor/huawei/extra/build/build_script/kirin_kernel_release/kernel/include/linux/module.h"
	.file	12 "/mnt/disk/jenkins/ci/workspace/chipset_pipeline_release/opensource/component_code/vendor/huawei/extra/build/build_script/kirin_kernel_release/kernel/include/linux/quota.h"
	.file	13 "/mnt/disk/jenkins/ci/workspace/chipset_pipeline_release/opensource/component_code/vendor/huawei/extra/build/build_script/kirin_kernel_release/kernel/include/linux/blkdev.h"
	.file	14 "/mnt/disk/jenkins/ci/workspace/chipset_pipeline_release/opensource/component_code/vendor/huawei/extra/build/build_script/kirin_kernel_release/kernel/include/linux/elevator.h"
	.file	15 "/mnt/disk/jenkins/ci/workspace/chipset_pipeline_release/opensource/component_code/vendor/huawei/extra/build/build_script/kirin_kernel_release/kernel/block/hisi-blk.h"
	.file	16 "/mnt/disk/jenkins/ci/workspace/chipset_pipeline_release/opensource/component_code/vendor/huawei/extra/build/build_script/kirin_kernel_release/kernel/include/linux/rcu_sync.h"
	.file	17 "/mnt/disk/jenkins/ci/workspace/chipset_pipeline_release/opensource/component_code/vendor/huawei/extra/build/build_script/kirin_kernel_release/kernel/include/linux/fs.h"
	.file	18 "/mnt/disk/jenkins/ci/workspace/chipset_pipeline_release/opensource/component_code/vendor/huawei/extra/build/build_script/kirin_kernel_release/kernel/include/linux/pid.h"
	.file	19 "/mnt/disk/jenkins/ci/workspace/chipset_pipeline_release/opensource/component_code/vendor/huawei/extra/build/build_script/kirin_kernel_release/kernel/include/linux/migrate_mode.h"
	.file	20 "/mnt/disk/jenkins/ci/workspace/chipset_pipeline_release/opensource/component_code/vendor/huawei/extra/build/build_script/kirin_kernel_release/kernel/include/linux/memremap.h"
	.file	21 "/mnt/disk/jenkins/ci/workspace/chipset_pipeline_release/opensource/component_code/vendor/huawei/extra/build/build_script/kirin_kernel_release/kernel/include/linux/mm.h"
	.file	22 "/mnt/disk/jenkins/ci/workspace/chipset_pipeline_release/opensource/component_code/vendor/huawei/extra/build/build_script/kirin_kernel_release/kernel/include/linux/restart_block.h"
	.file	23 "/mnt/disk/jenkins/ci/workspace/chipset_pipeline_release/opensource/component_code/vendor/huawei/extra/build/build_script/kirin_kernel_release/kernel/include/linux/device.h"
	.file	24 "/mnt/disk/jenkins/ci/workspace/chipset_pipeline_release/opensource/component_code/vendor/huawei/extra/build/build_script/kirin_kernel_release/kernel/include/linux/pm.h"
	.file	25 "/mnt/disk/jenkins/ci/workspace/chipset_pipeline_release/opensource/component_code/vendor/huawei/extra/build/build_script/kirin_kernel_release/kernel/include/linux/stddef.h"
	.file	26 "/mnt/disk/jenkins/ci/workspace/chipset_pipeline_release/opensource/component_code/vendor/huawei/extra/build/build_script/kirin_kernel_release/kernel/include/linux/blk_types.h"
	.file	27 "/mnt/disk/jenkins/ci/workspace/chipset_pipeline_release/opensource/component_code/vendor/huawei/extra/build/build_script/kirin_kernel_release/kernel/include/linux/hisi/hisi_powerkey_event.h"
	.file	28 "/mnt/disk/jenkins/ci/workspace/chipset_pipeline_release/opensource/component_code/vendor/huawei/extra/build/build_script/kirin_kernel_release/kernel/include/linux/workqueue.h"
	.file	29 "/mnt/disk/jenkins/ci/workspace/chipset_pipeline_release/opensource/component_code/vendor/huawei/extra/build/build_script/kirin_kernel_release/kernel/include/linux/genhd.h"
	.file	30 "/mnt/disk/jenkins/ci/workspace/chipset_pipeline_release/opensource/component_code/vendor/huawei/extra/build/build_script/kirin_kernel_release/kernel/include/linux/seqlock.h"
	.file	31 "/mnt/disk/jenkins/ci/workspace/chipset_pipeline_release/opensource/component_code/vendor/huawei/extra/build/build_script/kirin_kernel_release/kernel/include/linux/kobject.h"
	.file	32 "/mnt/disk/jenkins/ci/workspace/chipset_pipeline_release/opensource/component_code/vendor/huawei/extra/build/build_script/kirin_kernel_release/kernel/include/uapi/asm-generic/posix_types.h"
	.file	33 "/mnt/disk/jenkins/ci/workspace/chipset_pipeline_release/opensource/component_code/vendor/huawei/extra/build/build_script/kirin_kernel_release/kernel/include/linux/sysfs.h"
	.file	34 "/mnt/disk/jenkins/ci/workspace/chipset_pipeline_release/opensource/component_code/vendor/huawei/extra/build/build_script/kirin_kernel_release/kernel/include/linux/kernfs.h"
	.file	35 "/mnt/disk/jenkins/ci/workspace/chipset_pipeline_release/opensource/component_code/vendor/huawei/extra/build/build_script/kirin_kernel_release/kernel/include/linux/rbtree.h"
	.file	36 "/mnt/disk/jenkins/ci/workspace/chipset_pipeline_release/opensource/component_code/vendor/huawei/extra/build/build_script/kirin_kernel_release/kernel/include/linux/radix-tree.h"
	.file	37 "/mnt/disk/jenkins/ci/workspace/chipset_pipeline_release/opensource/component_code/vendor/huawei/extra/build/build_script/kirin_kernel_release/kernel/include/linux/idr.h"
	.file	38 "/mnt/disk/jenkins/ci/workspace/chipset_pipeline_release/opensource/component_code/vendor/huawei/extra/build/build_script/kirin_kernel_release/kernel/include/linux/seq_file.h"
	.file	39 "/mnt/disk/jenkins/ci/workspace/chipset_pipeline_release/opensource/component_code/vendor/huawei/extra/build/build_script/kirin_kernel_release/kernel/include/asm-generic/atomic-long.h"
	.file	40 "/mnt/disk/jenkins/ci/workspace/chipset_pipeline_release/opensource/component_code/vendor/huawei/extra/build/build_script/kirin_kernel_release/kernel/include/linux/mutex.h"
	.file	41 "/mnt/disk/jenkins/ci/workspace/chipset_pipeline_release/opensource/component_code/vendor/huawei/extra/build/build_script/kirin_kernel_release/kernel/include/linux/osq_lock.h"
	.file	42 "/mnt/disk/jenkins/ci/workspace/chipset_pipeline_release/opensource/component_code/vendor/huawei/extra/build/build_script/kirin_kernel_release/kernel/arch/arm64/include/asm/thread_info.h"
	.file	43 "/mnt/disk/jenkins/ci/workspace/chipset_pipeline_release/opensource/component_code/vendor/huawei/extra/build/build_script/kirin_kernel_release/kernel/include/linux/sched.h"
	.file	44 "/mnt/disk/jenkins/ci/workspace/chipset_pipeline_release/opensource/component_code/vendor/huawei/extra/build/build_script/kirin_kernel_release/kernel/include/linux/llist.h"
	.file	45 "/mnt/disk/jenkins/ci/workspace/chipset_pipeline_release/opensource/component_code/vendor/huawei/extra/build/build_script/kirin_kernel_release/kernel/include/linux/cpumask.h"
	.file	46 "/mnt/disk/jenkins/ci/workspace/chipset_pipeline_release/opensource/component_code/vendor/huawei/extra/build/build_script/kirin_kernel_release/kernel/include/linux/timerqueue.h"
	.file	47 "/mnt/disk/jenkins/ci/workspace/chipset_pipeline_release/opensource/component_code/vendor/huawei/extra/build/build_script/kirin_kernel_release/kernel/include/linux/ktime.h"
	.file	48 "/mnt/disk/jenkins/ci/workspace/chipset_pipeline_release/opensource/component_code/vendor/huawei/extra/build/build_script/kirin_kernel_release/kernel/include/linux/plist.h"
	.file	49 "/mnt/disk/jenkins/ci/workspace/chipset_pipeline_release/opensource/component_code/vendor/huawei/extra/build/build_script/kirin_kernel_release/kernel/include/linux/mm_types.h"
	.file	50 "/mnt/disk/jenkins/ci/workspace/chipset_pipeline_release/opensource/component_code/vendor/huawei/extra/build/build_script/kirin_kernel_release/kernel/arch/arm64/include/asm/pgtable-types.h"
	.file	51 "/mnt/disk/jenkins/ci/workspace/chipset_pipeline_release/opensource/component_code/vendor/huawei/extra/build/build_script/kirin_kernel_release/kernel/include/asm-generic/pgtable-nop4d-hack.h"
	.file	52 "/mnt/disk/jenkins/ci/workspace/chipset_pipeline_release/opensource/component_code/vendor/huawei/extra/build/build_script/kirin_kernel_release/kernel/include/linux/uidgid.h"
	.file	53 "/mnt/disk/jenkins/ci/workspace/chipset_pipeline_release/opensource/component_code/vendor/huawei/extra/build/build_script/kirin_kernel_release/kernel/include/linux/dcache.h"
	.file	54 "/mnt/disk/jenkins/ci/workspace/chipset_pipeline_release/opensource/component_code/vendor/huawei/extra/build/build_script/kirin_kernel_release/kernel/include/linux/list_bl.h"
	.file	55 "/mnt/disk/jenkins/ci/workspace/chipset_pipeline_release/opensource/component_code/vendor/huawei/extra/build/build_script/kirin_kernel_release/kernel/include/linux/lockref.h"
	.file	56 "/mnt/disk/jenkins/ci/workspace/chipset_pipeline_release/opensource/component_code/vendor/huawei/extra/build/build_script/kirin_kernel_release/kernel/include/linux/path.h"
	.file	57 "/mnt/disk/jenkins/ci/workspace/chipset_pipeline_release/opensource/component_code/vendor/huawei/extra/build/build_script/kirin_kernel_release/kernel/include/uapi/asm-generic/int-ll64.h"
	.file	58 "/mnt/disk/jenkins/ci/workspace/chipset_pipeline_release/opensource/component_code/vendor/huawei/extra/build/build_script/kirin_kernel_release/kernel/include/linux/completion.h"
	.file	59 "/mnt/disk/jenkins/ci/workspace/chipset_pipeline_release/opensource/component_code/vendor/huawei/extra/build/build_script/kirin_kernel_release/kernel/include/linux/wait.h"
	.file	60 "/mnt/disk/jenkins/ci/workspace/chipset_pipeline_release/opensource/component_code/vendor/huawei/extra/build/build_script/kirin_kernel_release/kernel/include/linux/moduleparam.h"
	.file	61 "/mnt/disk/jenkins/ci/workspace/chipset_pipeline_release/opensource/component_code/vendor/huawei/extra/build/build_script/kirin_kernel_release/kernel/arch/arm64/include/asm/extable.h"
	.file	62 "/mnt/disk/jenkins/ci/workspace/chipset_pipeline_release/opensource/component_code/vendor/huawei/extra/build/build_script/kirin_kernel_release/kernel/include/linux/rbtree_latch.h"
	.file	63 "/mnt/disk/jenkins/ci/workspace/chipset_pipeline_release/opensource/component_code/vendor/huawei/extra/build/build_script/kirin_kernel_release/kernel/include/uapi/linux/elf.h"
	.file	64 "/mnt/disk/jenkins/ci/workspace/chipset_pipeline_release/opensource/component_code/vendor/huawei/extra/build/build_script/kirin_kernel_release/kernel/arch/arm64/include/asm/module.h"
	.file	65 "/mnt/disk/jenkins/ci/workspace/chipset_pipeline_release/opensource/component_code/vendor/huawei/extra/build/build_script/kirin_kernel_release/kernel/include/uapi/linux/types.h"
	.file	66 "/mnt/disk/jenkins/ci/workspace/chipset_pipeline_release/opensource/component_code/vendor/huawei/extra/build/build_script/kirin_kernel_release/kernel/include/asm-generic/bug.h"
	.file	67 "/mnt/disk/jenkins/ci/workspace/chipset_pipeline_release/opensource/component_code/vendor/huawei/extra/build/build_script/kirin_kernel_release/kernel/include/linux/tracepoint-defs.h"
	.file	68 "/mnt/disk/jenkins/ci/workspace/chipset_pipeline_release/opensource/component_code/vendor/huawei/extra/build/build_script/kirin_kernel_release/kernel/include/linux/jump_label.h"
	.file	69 "/mnt/disk/jenkins/ci/workspace/chipset_pipeline_release/opensource/component_code/vendor/huawei/extra/build/build_script/kirin_kernel_release/kernel/include/linux/tracepoint.h"
	.file	70 "/mnt/disk/jenkins/ci/workspace/chipset_pipeline_release/opensource/component_code/vendor/huawei/extra/build/build_script/kirin_kernel_release/kernel/include/linux/lockdep.h"
	.file	71 "/mnt/disk/jenkins/ci/workspace/chipset_pipeline_release/opensource/component_code/vendor/huawei/extra/build/build_script/kirin_kernel_release/kernel/include/linux/projid.h"
	.file	72 "/mnt/disk/jenkins/ci/workspace/chipset_pipeline_release/opensource/component_code/vendor/huawei/extra/build/build_script/kirin_kernel_release/kernel/include/linux/time64.h"
	.file	73 "/mnt/disk/jenkins/ci/workspace/chipset_pipeline_release/opensource/component_code/vendor/huawei/extra/build/build_script/kirin_kernel_release/kernel/include/linux/shrinker.h"
	.file	74 "/mnt/disk/jenkins/ci/workspace/chipset_pipeline_release/opensource/component_code/vendor/huawei/extra/build/build_script/kirin_kernel_release/kernel/include/linux/rwsem.h"
	.file	75 "/mnt/disk/jenkins/ci/workspace/chipset_pipeline_release/opensource/component_code/vendor/huawei/extra/build/build_script/kirin_kernel_release/kernel/include/linux/smp.h"
	.file	76 "/mnt/disk/jenkins/ci/workspace/chipset_pipeline_release/opensource/component_code/vendor/huawei/extra/build/build_script/kirin_kernel_release/kernel/block/blk-mq.h"
	.file	77 "/mnt/disk/jenkins/ci/workspace/chipset_pipeline_release/opensource/component_code/vendor/huawei/extra/build/build_script/kirin_kernel_release/kernel/include/linux/bvec.h"
	.file	78 "/mnt/disk/jenkins/ci/workspace/chipset_pipeline_release/opensource/component_code/vendor/huawei/extra/build/build_script/kirin_kernel_release/kernel/include/linux/timer.h"
	.file	79 "/mnt/disk/jenkins/ci/workspace/chipset_pipeline_release/opensource/component_code/vendor/huawei/extra/build/build_script/kirin_kernel_release/kernel/include/uapi/linux/time.h"
	.file	80 "/mnt/disk/jenkins/ci/workspace/chipset_pipeline_release/opensource/component_code/vendor/huawei/extra/build/build_script/kirin_kernel_release/kernel/include/linux/iocontext.h"
	.file	81 "/mnt/disk/jenkins/ci/workspace/chipset_pipeline_release/opensource/component_code/vendor/huawei/extra/build/build_script/kirin_kernel_release/kernel/include/linux/bio.h"
	.file	82 "/mnt/disk/jenkins/ci/workspace/chipset_pipeline_release/opensource/component_code/vendor/huawei/extra/build/build_script/kirin_kernel_release/kernel/include/linux/mempool.h"
	.file	83 "/mnt/disk/jenkins/ci/workspace/chipset_pipeline_release/opensource/component_code/vendor/huawei/extra/build/build_script/kirin_kernel_release/kernel/include/linux/blk-mq.h"
	.file	84 "/mnt/disk/jenkins/ci/workspace/chipset_pipeline_release/opensource/component_code/vendor/huawei/extra/build/build_script/kirin_kernel_release/kernel/block/blk.h"
	.file	85 "/mnt/disk/jenkins/ci/workspace/chipset_pipeline_release/opensource/component_code/vendor/huawei/extra/build/build_script/kirin_kernel_release/kernel/include/linux/sbitmap.h"
	.file	86 "/mnt/disk/jenkins/ci/workspace/chipset_pipeline_release/opensource/component_code/vendor/huawei/extra/build/build_script/kirin_kernel_release/kernel/include/linux/srcutree.h"
	.file	87 "/mnt/disk/jenkins/ci/workspace/chipset_pipeline_release/opensource/component_code/vendor/huawei/extra/build/build_script/kirin_kernel_release/kernel/include/linux/rcu_segcblist.h"
	.file	88 "/mnt/disk/jenkins/ci/workspace/chipset_pipeline_release/opensource/component_code/vendor/huawei/extra/build/build_script/kirin_kernel_release/kernel/include/linux/backing-dev-defs.h"
	.file	89 "/mnt/disk/jenkins/ci/workspace/chipset_pipeline_release/opensource/component_code/vendor/huawei/extra/build/build_script/kirin_kernel_release/kernel/include/linux/refcount.h"
	.file	90 "/mnt/disk/jenkins/ci/workspace/chipset_pipeline_release/opensource/component_code/vendor/huawei/extra/build/build_script/kirin_kernel_release/kernel/include/linux/kref.h"
	.file	91 "/mnt/disk/jenkins/ci/workspace/chipset_pipeline_release/opensource/component_code/vendor/huawei/extra/build/build_script/kirin_kernel_release/kernel/include/linux/percpu_counter.h"
	.file	92 "/mnt/disk/jenkins/ci/workspace/chipset_pipeline_release/opensource/component_code/vendor/huawei/extra/build/build_script/kirin_kernel_release/kernel/include/linux/flex_proportions.h"
	.file	93 "/mnt/disk/jenkins/ci/workspace/chipset_pipeline_release/opensource/component_code/vendor/huawei/extra/build/build_script/kirin_kernel_release/kernel/include/linux/percpu-refcount.h"
	.file	94 "/mnt/disk/jenkins/ci/workspace/chipset_pipeline_release/opensource/component_code/vendor/huawei/extra/build/build_script/kirin_kernel_release/kernel/block/blk-stat.h"
	.file	95 "/mnt/disk/jenkins/ci/workspace/chipset_pipeline_release/opensource/component_code/vendor/huawei/extra/build/build_script/kirin_kernel_release/kernel/include/linux/bsg.h"
	.file	96 "/mnt/disk/jenkins/ci/workspace/chipset_pipeline_release/opensource/component_code/vendor/huawei/extra/build/build_script/kirin_kernel_release/kernel/include/linux/percpu-rwsem.h"
	.file	97 "/mnt/disk/jenkins/ci/workspace/chipset_pipeline_release/opensource/component_code/vendor/huawei/extra/build/build_script/kirin_kernel_release/kernel/include/linux/rcuwait.h"
	.file	98 "/mnt/disk/jenkins/ci/workspace/chipset_pipeline_release/opensource/component_code/vendor/huawei/extra/build/build_script/kirin_kernel_release/kernel/include/linux/uuid.h"
	.file	99 "/mnt/disk/jenkins/ci/workspace/chipset_pipeline_release/opensource/component_code/vendor/huawei/extra/build/build_script/kirin_kernel_release/kernel/include/linux/list_lru.h"
	.file	100 "/mnt/disk/jenkins/ci/workspace/chipset_pipeline_release/opensource/component_code/vendor/huawei/extra/build/build_script/kirin_kernel_release/kernel/include/linux/delayed_call.h"
	.file	101 "/mnt/disk/jenkins/ci/workspace/chipset_pipeline_release/opensource/component_code/vendor/huawei/extra/build/build_script/kirin_kernel_release/kernel/include/linux/uio.h"
	.file	102 "/mnt/disk/jenkins/ci/workspace/chipset_pipeline_release/opensource/component_code/vendor/huawei/extra/build/build_script/kirin_kernel_release/kernel/include/uapi/linux/uio.h"
	.file	103 "/mnt/disk/jenkins/ci/workspace/chipset_pipeline_release/opensource/component_code/vendor/huawei/extra/build/build_script/kirin_kernel_release/kernel/include/linux/poll.h"
	.file	104 "/mnt/disk/jenkins/ci/workspace/chipset_pipeline_release/opensource/component_code/vendor/huawei/extra/build/build_script/kirin_kernel_release/kernel/include/linux/nfs_fs_i.h"
	.file	105 "/mnt/disk/jenkins/ci/workspace/chipset_pipeline_release/opensource/component_code/vendor/huawei/extra/build/build_script/kirin_kernel_release/kernel/include/linux/rwlock_types.h"
	.file	106 "/mnt/disk/jenkins/ci/workspace/chipset_pipeline_release/opensource/component_code/vendor/huawei/extra/build/build_script/kirin_kernel_release/kernel/include/linux/cred.h"
	.file	107 "/mnt/disk/jenkins/ci/workspace/chipset_pipeline_release/opensource/component_code/vendor/huawei/extra/build/build_script/kirin_kernel_release/kernel/include/linux/capability.h"
	.file	108 "/mnt/disk/jenkins/ci/workspace/chipset_pipeline_release/opensource/component_code/vendor/huawei/extra/build/build_script/kirin_kernel_release/kernel/include/linux/key.h"
	.file	109 "/mnt/disk/jenkins/ci/workspace/chipset_pipeline_release/opensource/component_code/vendor/huawei/extra/build/build_script/kirin_kernel_release/kernel/include/linux/assoc_array.h"
	.file	110 "/mnt/disk/jenkins/ci/workspace/chipset_pipeline_release/opensource/component_code/vendor/huawei/extra/build/build_script/kirin_kernel_release/kernel/include/linux/sched/user.h"
	.file	111 "/mnt/disk/jenkins/ci/workspace/chipset_pipeline_release/opensource/component_code/vendor/huawei/extra/build/build_script/kirin_kernel_release/kernel/include/linux/errseq.h"
	.file	112 "/mnt/disk/jenkins/ci/workspace/chipset_pipeline_release/opensource/component_code/vendor/huawei/extra/build/build_script/kirin_kernel_release/kernel/include/linux/stat.h"
	.file	113 "/mnt/disk/jenkins/ci/workspace/chipset_pipeline_release/opensource/component_code/vendor/huawei/extra/build/build_script/kirin_kernel_release/kernel/include/uapi/linux/fiemap.h"
	.file	114 "/mnt/disk/jenkins/ci/workspace/chipset_pipeline_release/opensource/component_code/vendor/huawei/extra/build/build_script/kirin_kernel_release/kernel/include/linux/mmzone.h"
	.file	115 "/mnt/disk/jenkins/ci/workspace/chipset_pipeline_release/opensource/component_code/vendor/huawei/extra/build/build_script/kirin_kernel_release/kernel/include/linux/ioport.h"
	.file	116 "/mnt/disk/jenkins/ci/workspace/chipset_pipeline_release/opensource/component_code/vendor/huawei/extra/build/build_script/kirin_kernel_release/kernel/arch/arm64/include/asm/page.h"
	.file	117 "/mnt/disk/jenkins/ci/workspace/chipset_pipeline_release/opensource/component_code/vendor/huawei/extra/build/build_script/kirin_kernel_release/kernel/include/linux/mm_types_task.h"
	.file	118 "/mnt/disk/jenkins/ci/workspace/chipset_pipeline_release/opensource/component_code/vendor/huawei/extra/build/build_script/kirin_kernel_release/kernel/arch/arm64/include/asm/mmu.h"
	.file	119 "/mnt/disk/jenkins/ci/workspace/chipset_pipeline_release/opensource/component_code/vendor/huawei/extra/build/build_script/kirin_kernel_release/kernel/include/linux/uprobes.h"
	.file	120 "/mnt/disk/jenkins/ci/workspace/chipset_pipeline_release/opensource/component_code/vendor/huawei/extra/build/build_script/kirin_kernel_release/kernel/arch/arm64/include/asm/compat.h"
	.file	121 "/mnt/disk/jenkins/ci/workspace/chipset_pipeline_release/opensource/component_code/vendor/huawei/extra/build/build_script/kirin_kernel_release/kernel/include/uapi/asm-generic/poll.h"
	.file	122 "/mnt/disk/jenkins/ci/workspace/chipset_pipeline_release/opensource/component_code/vendor/huawei/extra/build/build_script/kirin_kernel_release/kernel/include/uapi/asm-generic/signal.h"
	.file	123 "/mnt/disk/jenkins/ci/workspace/chipset_pipeline_release/opensource/component_code/vendor/huawei/extra/build/build_script/kirin_kernel_release/kernel/include/linux/signal_types.h"
	.file	124 "/mnt/disk/jenkins/ci/workspace/chipset_pipeline_release/opensource/component_code/vendor/huawei/extra/build/build_script/kirin_kernel_release/kernel/include/linux/seccomp.h"
	.file	125 "/mnt/disk/jenkins/ci/workspace/chipset_pipeline_release/opensource/component_code/vendor/huawei/extra/build/build_script/kirin_kernel_release/kernel/include/uapi/asm-generic/siginfo.h"
	.file	126 "/mnt/disk/jenkins/ci/workspace/chipset_pipeline_release/opensource/component_code/vendor/huawei/extra/build/build_script/kirin_kernel_release/kernel/include/linux/task_io_accounting.h"
	.file	127 "/mnt/disk/jenkins/ci/workspace/chipset_pipeline_release/opensource/component_code/vendor/huawei/extra/build/build_script/kirin_kernel_release/kernel/include/linux/nodemask.h"
	.file	128 "/mnt/disk/jenkins/ci/workspace/chipset_pipeline_release/opensource/component_code/vendor/huawei/extra/build/build_script/kirin_kernel_release/kernel/include/linux/compat.h"
	.file	129 "/mnt/disk/jenkins/ci/workspace/chipset_pipeline_release/opensource/component_code/vendor/huawei/extra/build/build_script/kirin_kernel_release/kernel/arch/arm64/include/asm/processor.h"
	.file	130 "/mnt/disk/jenkins/ci/workspace/chipset_pipeline_release/opensource/component_code/vendor/huawei/extra/build/build_script/kirin_kernel_release/kernel/block/hisi-blk-flush.c"
	.file	131 "/mnt/disk/jenkins/ci/workspace/chipset_pipeline_release/opensource/component_code/vendor/huawei/extra/build/build_script/kirin_kernel_release/kernel/arch/arm64/include/uapi/asm/ptrace.h"
	.file	132 "/mnt/disk/jenkins/ci/workspace/chipset_pipeline_release/opensource/component_code/vendor/huawei/extra/build/build_script/kirin_kernel_release/kernel/arch/arm64/include/asm/fpsimd.h"
	.file	133 "/mnt/disk/jenkins/ci/workspace/chipset_pipeline_release/opensource/component_code/vendor/huawei/extra/build/build_script/kirin_kernel_release/kernel/include/linux/pm_wakeup.h"
	.file	134 "/mnt/disk/jenkins/ci/workspace/chipset_pipeline_release/opensource/component_code/vendor/huawei/extra/build/build_script/kirin_kernel_release/kernel/include/linux/pinctrl/devinfo.h"
	.file	135 "/mnt/disk/jenkins/ci/workspace/chipset_pipeline_release/opensource/component_code/vendor/huawei/extra/build/build_script/kirin_kernel_release/kernel/arch/arm64/include/asm/device.h"
	.file	136 "/mnt/disk/jenkins/ci/workspace/chipset_pipeline_release/opensource/component_code/vendor/huawei/extra/build/build_script/kirin_kernel_release/kernel/include/linux/klist.h"
	.globl	hisi_blk_flush_work_fn  // -- Begin function hisi_blk_flush_work_fn
	.p2align	2
	.type	hisi_blk_flush_work_fn,@function
hisi_blk_flush_work_fn:                 // @hisi_blk_flush_work_fn
.Lfunc_begin0:
	.loc	2 41 0                  // kernel/block/hisi-blk-flush.c:41:0
	.cfi_sections .debug_frame
	.cfi_startproc
// %bb.0:
	//DEBUG_VALUE: hisi_blk_flush_work_fn:work <- $x0
	//DEBUG_VALUE: hisi_blk_flush_work_fn:work <- $x0
	str	x19, [sp, #-32]!        // 8-byte Folded Spill
	stp	x29, x30, [sp, #16]     // 16-byte Folded Spill
	add	x29, sp, #16            // =16
	.cfi_def_cfa w29, 16
	.cfi_offset w30, -8
	.cfi_offset w29, -16
	.cfi_offset w19, -32
.Ltmp0:
	//DEBUG_VALUE: __mptr <- $x0
	//DEBUG_VALUE: __mptr <- $x0
	//DEBUG_VALUE: hisi_blk_flush_work_fn:member <- [DW_OP_constu 24, DW_OP_minus, DW_OP_stack_value] $x0
	//DEBUG_VALUE: hisi_blk_flush_work_fn:member <- [DW_OP_constu 24, DW_OP_minus, DW_OP_stack_value] $x0
	//DEBUG_VALUE: hisi_blk_flush_work_fn:q <- [DW_OP_constu 24, DW_OP_minus, DW_OP_constu 1536, DW_OP_minus, DW_OP_stack_value] $x0
	.loc	2 46 55 prologue_end    // kernel/block/hisi-blk-flush.c:46:55
	ldur	x0, [x0, #-24]
.Ltmp1:
	.loc	2 46 30 is_stmt 0       // kernel/block/hisi-blk-flush.c:46:30
	mov	w1, wzr
	bl	bdget_disk
	.loc	2 48 6 is_stmt 1        // kernel/block/hisi-blk-flush.c:48:6
	cbz	x0, .LBB0_6
// %bb.1:
.Ltmp2:
	.loc	2 49 13                 // kernel/block/hisi-blk-flush.c:49:13
	orr	w1, wzr, #0x2
	mov	x2, xzr
.Ltmp3:
	.loc	2 0 0 is_stmt 0         // kernel/block/hisi-blk-flush.c:0:0
	mov	x19, x0
.Ltmp4:
	//DEBUG_VALUE: hisi_blk_flush_work_fn:bdev <- $x19
	.loc	2 49 13                 // kernel/block/hisi-blk-flush.c:49:13
	bl	blkdev_get
.Ltmp5:
	//DEBUG_VALUE: ret <- $w0
	.loc	2 51 7 is_stmt 1        // kernel/block/hisi-blk-flush.c:51:7
	cbz	w0, .LBB0_3
.Ltmp6:
// %bb.2:
	//DEBUG_VALUE: ret <- $w0
	//DEBUG_VALUE: hisi_blk_flush_work_fn:bdev <- $x19
	.loc	2 52 4                  // kernel/block/hisi-blk-flush.c:52:4
	adrp	x0, .L.str
.Ltmp7:
	adrp	x1, .L__func__.hisi_blk_flush_work_fn
	add	x0, x0, :lo12:.L.str
	add	x1, x1, :lo12:.L__func__.hisi_blk_flush_work_fn
	bl	printk
	b	.LBB0_6
.Ltmp8:
.LBB0_3:
	//DEBUG_VALUE: ret <- $w0
	//DEBUG_VALUE: hisi_blk_flush_work_fn:bdev <- $x19
	.loc	2 55 9                  // kernel/block/hisi-blk-flush.c:55:9
	mov	w1, #192
	movk	w1, #320, lsl #16
	mov	x0, x19
.Ltmp9:
	mov	x2, xzr
	bl	blkdev_issue_flush
.Ltmp10:
	//DEBUG_VALUE: ret <- $w0
	.loc	2 56 7                  // kernel/block/hisi-blk-flush.c:56:7
	cbz	w0, .LBB0_5
.Ltmp11:
// %bb.4:
	//DEBUG_VALUE: ret <- $w0
	//DEBUG_VALUE: hisi_blk_flush_work_fn:bdev <- $x19
	.loc	2 57 4                  // kernel/block/hisi-blk-flush.c:57:4
	adrp	x0, .L.str.1
.Ltmp12:
	adrp	x1, .L__func__.hisi_blk_flush_work_fn
	add	x0, x0, :lo12:.L.str.1
	add	x1, x1, :lo12:.L__func__.hisi_blk_flush_work_fn
	bl	printk
.Ltmp13:
.LBB0_5:
	//DEBUG_VALUE: hisi_blk_flush_work_fn:bdev <- $x19
	.loc	2 58 3                  // kernel/block/hisi-blk-flush.c:58:3
	orr	w1, wzr, #0x2
	mov	x0, x19
	bl	blkdev_put
.Ltmp14:
.LBB0_6:
	.loc	2 60 1                  // kernel/block/hisi-blk-flush.c:60:1
	ldp	x29, x30, [sp, #16]     // 16-byte Folded Reload
	ldr	x19, [sp], #32          // 8-byte Folded Reload
	ret
.Ltmp15:
.Lfunc_end0:
	.size	hisi_blk_flush_work_fn, .Lfunc_end0-hisi_blk_flush_work_fn
	.cfi_endproc
                                        // -- End function
	.globl	hisi_blk_flush_async_dispatch // -- Begin function hisi_blk_flush_async_dispatch
	.p2align	2
	.type	hisi_blk_flush_async_dispatch,@function
hisi_blk_flush_async_dispatch:          // @hisi_blk_flush_async_dispatch
.Lfunc_begin1:
	.loc	2 67 0                  // kernel/block/hisi-blk-flush.c:67:0
	.cfi_startproc
// %bb.0:
	//DEBUG_VALUE: hisi_blk_flush_async_dispatch:q <- $x0
	//DEBUG_VALUE: hisi_blk_flush_async_dispatch:q <- $x0
	//DEBUG_VALUE: hisi_blk_flush_async_dispatch:bio <- $x1
	//DEBUG_VALUE: hisi_blk_flush_async_dispatch:hisi_queue <- [DW_OP_plus_uconst 1536, DW_OP_stack_value] $x0
	//DEBUG_VALUE: hisi_blk_flush_async_dispatch:hisi_queue <- [DW_OP_plus_uconst 1536, DW_OP_stack_value] $x0
	.loc	2 73 6 prologue_end     // kernel/block/hisi-blk-flush.c:73:6
	ldr	w8, [x0, #1680]
.Ltmp16:
	//DEBUG_VALUE: hisi_blk_flush_async_dispatch:bio <- $x1
	.loc	2 73 6 is_stmt 0        // kernel/block/hisi-blk-flush.c:73:6
	cbz	w8, .LBB1_5
.Ltmp17:
// %bb.1:
	//DEBUG_VALUE: hisi_blk_flush_async_dispatch:hisi_queue <- [DW_OP_plus_uconst 1536, DW_OP_stack_value] $x0
	//DEBUG_VALUE: hisi_blk_flush_async_dispatch:bio <- $x1
	//DEBUG_VALUE: hisi_blk_flush_async_dispatch:q <- $x0
	.loc	2 76 6 is_stmt 1        // kernel/block/hisi-blk-flush.c:76:6
	ldr	w8, [x1, #16]
	tbz	w8, #19, .LBB1_3
.Ltmp18:
// %bb.2:
	//DEBUG_VALUE: hisi_blk_flush_async_dispatch:hisi_queue <- [DW_OP_plus_uconst 1536, DW_OP_stack_value] $x0
	//DEBUG_VALUE: hisi_blk_flush_async_dispatch:bio <- $x1
	//DEBUG_VALUE: hisi_blk_flush_async_dispatch:q <- $x0
	ldr	w9, [x1, #48]
.Ltmp19:
	.loc	2 76 6 is_stmt 0        // kernel/block/hisi-blk-flush.c:76:6
	cbz	w9, .LBB1_6
.Ltmp20:
.LBB1_3:
	//DEBUG_VALUE: hisi_blk_flush_async_dispatch:hisi_queue <- [DW_OP_plus_uconst 1536, DW_OP_stack_value] $x0
	//DEBUG_VALUE: hisi_blk_flush_async_dispatch:bio <- $x1
	//DEBUG_VALUE: hisi_blk_flush_async_dispatch:q <- $x0
	//DEBUG_LABEL: hisi_blk_flush_async_dispatch:out
	.loc	2 108 6 is_stmt 1       // kernel/block/hisi-blk-flush.c:108:6
	and	w8, w8, #0xff
.Ltmp21:
	.loc	2 108 6 is_stmt 0       // kernel/block/hisi-blk-flush.c:108:6
	cmp	w8, #1                  // =1
	b.ne	.LBB1_5
.Ltmp22:
// %bb.4:
	//DEBUG_VALUE: hisi_blk_flush_async_dispatch:hisi_queue <- [DW_OP_plus_uconst 1536, DW_OP_stack_value] $x0
	//DEBUG_VALUE: hisi_blk_flush_async_dispatch:bio <- $x1
	//DEBUG_VALUE: hisi_blk_flush_async_dispatch:q <- $x0
	//DEBUG_VALUE: atomic_add:i <- 1
	//DEBUG_VALUE: atomic_add:v <- [DW_OP_plus_uconst 1660, DW_OP_stack_value] $x0
	.file	137 "/mnt/disk/jenkins/ci/workspace/chipset_pipeline_release/opensource/component_code/vendor/huawei/extra/build/build_script/kirin_kernel_release/kernel/arch/arm64/include/asm/atomic_ll_sc.h"
	.loc	137 113 1 is_stmt 1     // kernel/arch/arm64/include/asm/atomic_ll_sc.h:113:1
	add	x8, x0, #1660           // =1660
	//APP
	// atomic_add
	prfm	pstl1strm, [x8]
1:	ldxr	w9, [x8]
	add	w9, w9, #1
	stxr	w10, w9, [x8]
	cbnz	w10, 1b
	//NO_APP
.Ltmp23:
.LBB1_5:
	//DEBUG_VALUE: hisi_blk_flush_async_dispatch:hisi_queue <- [DW_OP_plus_uconst 1536, DW_OP_stack_value] $x0
	//DEBUG_VALUE: hisi_blk_flush_async_dispatch:bio <- $x1
	//DEBUG_VALUE: hisi_blk_flush_async_dispatch:q <- $x0
	//DEBUG_VALUE: atomic_add:tmp <- undef
	//DEBUG_VALUE: atomic_add:result <- undef
	.loc	2 0 0 is_stmt 0         // kernel/block/hisi-blk-flush.c:0:0
	mov	w0, wzr
.Ltmp24:
	.loc	2 112 1 is_stmt 1       // kernel/block/hisi-blk-flush.c:112:1
	ret
.Ltmp25:
.LBB1_6:
	//DEBUG_VALUE: hisi_blk_flush_async_dispatch:hisi_queue <- [DW_OP_plus_uconst 1536, DW_OP_stack_value] $x0
	//DEBUG_VALUE: hisi_blk_flush_async_dispatch:bio <- $x1
	//DEBUG_VALUE: hisi_blk_flush_async_dispatch:q <- $x0
	.loc	2 85 20                 // kernel/block/hisi-blk-flush.c:85:20
	ldrb	w9, [x1, #138]
.Ltmp26:
	.loc	2 85 6 is_stmt 0        // kernel/block/hisi-blk-flush.c:85:6
	cbz	w9, .LBB1_8
.Ltmp27:
// %bb.7:
	//DEBUG_VALUE: hisi_blk_flush_async_dispatch:hisi_queue <- [DW_OP_plus_uconst 1536, DW_OP_stack_value] $x0
	//DEBUG_VALUE: hisi_blk_flush_async_dispatch:bio <- $x1
	//DEBUG_VALUE: hisi_blk_flush_async_dispatch:q <- $x0
	str	x19, [sp, #-32]!        // 8-byte Folded Spill
	stp	x29, x30, [sp, #16]     // 16-byte Folded Spill
	add	x29, sp, #16            // =16
	.cfi_def_cfa w29, 16
	.cfi_offset w30, -8
	.cfi_offset w29, -16
	.cfi_offset w19, -32
.Ltmp28:
	.loc	2 86 36 is_stmt 1       // kernel/block/hisi-blk-flush.c:86:36
	add	x19, x0, #1560          // =1560
	.loc	2 86 3 is_stmt 0        // kernel/block/hisi-blk-flush.c:86:3
	mov	x0, x19
.Ltmp29:
	bl	cancel_delayed_work
.Ltmp30:
	.loc	2 87 22 is_stmt 1       // kernel/block/hisi-blk-flush.c:87:22
	adrp	x8, blk_async_flush_workqueue
	ldr	x1, [x8, :lo12:blk_async_flush_workqueue]
.Ltmp31:
	//DEBUG_VALUE: queue_delayed_work:delay <- 5
	//DEBUG_VALUE: queue_delayed_work:wq <- $x1
	//DEBUG_VALUE: queue_delayed_work:dwork <- $x19
	.loc	28 506 9                // kernel/include/linux/workqueue.h:506:9
	orr	w0, wzr, #0x8
	mov	w3, #5
	mov	x2, x19
	bl	queue_delayed_work_on
.Ltmp32:
	.loc	2 93 3                  // kernel/block/hisi-blk-flush.c:93:3
	ldp	x29, x30, [sp, #16]     // 16-byte Folded Reload
	orr	w0, wzr, #0x1
	ldr	x19, [sp], #32          // 8-byte Folded Reload
.Ltmp33:
	.loc	2 112 1                 // kernel/block/hisi-blk-flush.c:112:1
	ret
.LBB1_8:
.Ltmp34:
	//DEBUG_VALUE: hisi_blk_flush_async_dispatch:hisi_queue <- [DW_OP_plus_uconst 1536, DW_OP_stack_value] $x0
	//DEBUG_VALUE: hisi_blk_flush_async_dispatch:bio <- $x1
	//DEBUG_VALUE: hisi_blk_flush_async_dispatch:q <- $x0
	//DEBUG_VALUE: __read_once_size:p <- [DW_OP_plus_uconst 1660, DW_OP_stack_value] $x0
	//DEBUG_VALUE: __read_once_size:res <- undef
	//DEBUG_VALUE: __read_once_size:size <- 4
	.file	138 "/mnt/disk/jenkins/ci/workspace/chipset_pipeline_release/opensource/component_code/vendor/huawei/extra/build/build_script/kirin_kernel_release/kernel/include/linux/compiler.h"
	.loc	138 183 2               // kernel/include/linux/compiler.h:183:2
	ldr	w9, [x0, #1660]
.Ltmp35:
	.loc	2 96 6                  // kernel/block/hisi-blk-flush.c:96:6
	cbnz	w9, .LBB1_3
.Ltmp36:
// %bb.9:
	//DEBUG_VALUE: hisi_blk_flush_async_dispatch:hisi_queue <- [DW_OP_plus_uconst 1536, DW_OP_stack_value] $x0
	//DEBUG_VALUE: hisi_blk_flush_async_dispatch:bio <- $x1
	//DEBUG_VALUE: hisi_blk_flush_async_dispatch:q <- $x0
	.loc	2 0 6 is_stmt 0         // kernel/block/hisi-blk-flush.c:0:6
	orr	w0, wzr, #0x1
.Ltmp37:
	.loc	2 112 1 is_stmt 1       // kernel/block/hisi-blk-flush.c:112:1
	ret
.Ltmp38:
.Lfunc_end1:
	.size	hisi_blk_flush_async_dispatch, .Lfunc_end1-hisi_blk_flush_async_dispatch
	.cfi_endproc
                                        // -- End function
	.globl	hisi_blk_flush_update   // -- Begin function hisi_blk_flush_update
	.p2align	2
	.type	hisi_blk_flush_update,@function
hisi_blk_flush_update:                  // @hisi_blk_flush_update
.Lfunc_begin2:
	.loc	2 115 0                 // kernel/block/hisi-blk-flush.c:115:0
	.cfi_startproc
// %bb.0:
	//DEBUG_VALUE: hisi_blk_flush_update:req <- $x0
	//DEBUG_VALUE: hisi_blk_flush_update:req <- $x0
	//DEBUG_VALUE: hisi_blk_flush_update:error <- $w1
	//DEBUG_VALUE: hisi_blk_flush_update:error <- $w1
	.loc	2 116 6 prologue_end    // kernel/block/hisi-blk-flush.c:116:6
	cbnz	w1, .LBB2_2
// %bb.1:
	//DEBUG_VALUE: hisi_blk_flush_update:error <- $w1
	//DEBUG_VALUE: hisi_blk_flush_update:req <- $x0
.Ltmp39:
	.loc	2 117 3                 // kernel/block/hisi-blk-flush.c:117:3
	ldr	x8, [x0, #64]
.Ltmp40:
	//DEBUG_VALUE: __write_once_size:p <- [DW_OP_plus_uconst 1660, DW_OP_stack_value] $x8
	//DEBUG_VALUE: __write_once_size:size <- 4
	//DEBUG_VALUE: __write_once_size:res <- undef
	.loc	138 209 31              // kernel/include/linux/compiler.h:209:31
	str	wzr, [x8, #1660]
.Ltmp41:
.LBB2_2:
	//DEBUG_VALUE: hisi_blk_flush_update:error <- $w1
	//DEBUG_VALUE: hisi_blk_flush_update:req <- $x0
	.loc	2 118 1                 // kernel/block/hisi-blk-flush.c:118:1
	ret
.Ltmp42:
.Lfunc_end2:
	.size	hisi_blk_flush_update, .Lfunc_end2-hisi_blk_flush_update
	.cfi_endproc
                                        // -- End function
	.globl	blk_power_off_flush     // -- Begin function blk_power_off_flush
	.p2align	2
	.type	blk_power_off_flush,@function
blk_power_off_flush:                    // @blk_power_off_flush
.Lfunc_begin3:
	.loc	2 124 0                 // kernel/block/hisi-blk-flush.c:124:0
	.cfi_startproc
// %bb.0:
	//DEBUG_VALUE: blk_power_off_flush:emergency <- $w0
	str	x27, [sp, #-96]!        // 8-byte Folded Spill
	stp	x26, x25, [sp, #16]     // 16-byte Folded Spill
	stp	x24, x23, [sp, #32]     // 16-byte Folded Spill
	stp	x22, x21, [sp, #48]     // 16-byte Folded Spill
	stp	x20, x19, [sp, #64]     // 16-byte Folded Spill
	stp	x29, x30, [sp, #80]     // 16-byte Folded Spill
	add	x29, sp, #80            // =80
	.cfi_def_cfa w29, 16
	.cfi_offset w30, -8
	.cfi_offset w29, -16
	.cfi_offset w19, -24
	.cfi_offset w20, -32
	.cfi_offset w21, -40
	.cfi_offset w22, -48
	.cfi_offset w23, -56
	.cfi_offset w24, -64
	.cfi_offset w25, -72
	.cfi_offset w26, -80
	.cfi_offset w27, -96
	mov	w2, w0
.Ltmp43:
	//DEBUG_VALUE: blk_power_off_flush:blk_lld <- 0
	//DEBUG_VALUE: blk_power_off_flush:q <- 0
	//DEBUG_VALUE: blk_power_off_flush:hisi_queue <- 0
	//DEBUG_VALUE: blk_power_off_flush:emergency <- $w2
	.loc	2 130 2 prologue_end    // kernel/block/hisi-blk-flush.c:130:2
	adrp	x0, .L.str.2
	adrp	x1, .L__func__.blk_power_off_flush
	add	x0, x0, :lo12:.L.str.2
	add	x1, x1, :lo12:.L__func__.blk_power_off_flush
	//DEBUG_VALUE: blk_power_off_flush:emergency <- $w2
	bl	printk
.Ltmp44:
	.loc	2 131 2                 // kernel/block/hisi-blk-flush.c:131:2
	adrp	x0, all_flush_q_lock
	add	x0, x0, :lo12:all_flush_q_lock
	bl	_raw_spin_lock_irqsave
.Ltmp45:
	.loc	2 0 0 is_stmt 0         // kernel/block/hisi-blk-flush.c:0:0
	adrp	x26, all_flush_q_list
	add	x26, x26, :lo12:all_flush_q_list
	ldr	x27, [x26]
.Ltmp46:
	//DEBUG_VALUE: blk_power_off_flush:hisi_queue <- [DW_OP_constu 128, DW_OP_minus, DW_OP_stack_value] $x27
	.loc	2 131 2                 // kernel/block/hisi-blk-flush.c:131:2
	mov	x19, x0
.Ltmp47:
	//DEBUG_VALUE: blk_power_off_flush:flag <- $x19
	//DEBUG_VALUE: spin_unlock_irqrestore:flags <- $x19
	.loc	2 132 2 is_stmt 1       // kernel/block/hisi-blk-flush.c:132:2
	cmp	x27, x26
	b.eq	.LBB3_9
.Ltmp48:
// %bb.1:
	//DEBUG_VALUE: spin_unlock_irqrestore:flags <- $x19
	//DEBUG_VALUE: blk_power_off_flush:flag <- $x19
	//DEBUG_VALUE: blk_power_off_flush:hisi_queue <- [DW_OP_constu 128, DW_OP_minus, DW_OP_stack_value] $x27
	.loc	2 0 2 is_stmt 0         // kernel/block/hisi-blk-flush.c:0:2
	adrp	x20, .L.str.3
	adrp	x21, .L__func__.blk_power_off_flush
	adrp	x22, .L.str.4
	add	x20, x20, :lo12:.L.str.3
	add	x21, x21, :lo12:.L__func__.blk_power_off_flush
	add	x22, x22, :lo12:.L.str.4
.Ltmp49:
.LBB3_2:                                // =>This Inner Loop Header: Depth=1
	//DEBUG_VALUE: blk_power_off_flush:flag <- $x19
	//DEBUG_VALUE: blk_power_off_flush:hisi_queue <- [DW_OP_constu 128, DW_OP_minus, DW_OP_stack_value] $x27
	//DEBUG_VALUE: __mptr <- [DW_OP_constu 128, DW_OP_minus, DW_OP_stack_value] $x27
	//DEBUG_VALUE: queue_disk <- 0
	.loc	2 135 20 is_stmt 1      // kernel/block/hisi-blk-flush.c:135:20
	ldurb	w8, [x27, #-120]
.Ltmp50:
	.loc	2 135 7 is_stmt 0       // kernel/block/hisi-blk-flush.c:135:7
	cbz	w8, .LBB3_8
.Ltmp51:
// %bb.3:                               //   in Loop: Header=BB3_2 Depth=1
	//DEBUG_VALUE: __mptr <- [DW_OP_constu 128, DW_OP_minus, DW_OP_stack_value] $x27
	//DEBUG_VALUE: blk_power_off_flush:flag <- $x19
	//DEBUG_VALUE: blk_power_off_flush:hisi_queue <- [DW_OP_constu 128, DW_OP_minus, DW_OP_stack_value] $x27
	.loc	2 137 31 is_stmt 1      // kernel/block/hisi-blk-flush.c:137:31
	sub	x23, x27, #1664         // =1664
.Ltmp52:
	//DEBUG_VALUE: blk_power_off_flush:q <- $x23
	.loc	2 139 13                // kernel/block/hisi-blk-flush.c:139:13
	mov	x0, x23
	bl	hisi_blk_get_lld
.Ltmp53:
	.loc	2 141 15                // kernel/block/hisi-blk-flush.c:141:15
	cbz	x0, .LBB3_8
.Ltmp54:
// %bb.4:                               //   in Loop: Header=BB3_2 Depth=1
	//DEBUG_VALUE: blk_power_off_flush:q <- $x23
	//DEBUG_VALUE: blk_power_off_flush:flag <- $x19
	//DEBUG_VALUE: blk_power_off_flush:hisi_queue <- [DW_OP_constu 128, DW_OP_minus, DW_OP_stack_value] $x27
	.loc	2 141 27 is_stmt 0      // kernel/block/hisi-blk-flush.c:141:27
	ldr	x8, [x0, #56]
.Ltmp55:
	.loc	2 0 0                   // kernel/block/hisi-blk-flush.c:0:0
	mov	x24, x0
.Ltmp56:
	//DEBUG_VALUE: blk_power_off_flush:blk_lld <- $x24
	.loc	2 141 7                 // kernel/block/hisi-blk-flush.c:141:7
	cbz	x8, .LBB3_8
.Ltmp57:
// %bb.5:                               //   in Loop: Header=BB3_2 Depth=1
	//DEBUG_VALUE: blk_power_off_flush:blk_lld <- $x24
	//DEBUG_VALUE: blk_power_off_flush:q <- $x23
	//DEBUG_VALUE: blk_power_off_flush:flag <- $x19
	//DEBUG_VALUE: blk_power_off_flush:hisi_queue <- [DW_OP_constu 128, DW_OP_minus, DW_OP_stack_value] $x27
	.loc	2 0 0                   // kernel/block/hisi-blk-flush.c:0:0
	ldur	x9, [x27, #-128]
.Ltmp58:
	//DEBUG_VALUE: queue_disk <- $x9
	.loc	2 142 8 is_stmt 1       // kernel/block/hisi-blk-flush.c:142:8
	cbz	x9, .LBB3_7
.Ltmp59:
// %bb.6:                               //   in Loop: Header=BB3_2 Depth=1
	//DEBUG_VALUE: queue_disk <- $x9
	//DEBUG_VALUE: blk_power_off_flush:blk_lld <- $x24
	//DEBUG_VALUE: blk_power_off_flush:q <- $x23
	//DEBUG_VALUE: blk_power_off_flush:flag <- $x19
	//DEBUG_VALUE: blk_power_off_flush:hisi_queue <- [DW_OP_constu 128, DW_OP_minus, DW_OP_stack_value] $x27
	.loc	2 143 5                 // kernel/block/hisi-blk-flush.c:143:5
	add	x25, x9, #12            // =12
	mov	x0, x20
	mov	x1, x21
	mov	x2, x25
	bl	printk
.Ltmp60:
	.loc	2 145 13                // kernel/block/hisi-blk-flush.c:145:13
	ldr	x8, [x24, #56]
	.loc	2 145 4 is_stmt 0       // kernel/block/hisi-blk-flush.c:145:4
	mov	x0, x23
	blr	x8
.Ltmp61:
	.loc	2 147 5 is_stmt 1       // kernel/block/hisi-blk-flush.c:147:5
	mov	x0, x22
	mov	x1, x21
	mov	x2, x25
	bl	printk
	b	.LBB3_8
.Ltmp62:
.LBB3_7:                                //   in Loop: Header=BB3_2 Depth=1
	//DEBUG_VALUE: queue_disk <- $x9
	//DEBUG_VALUE: blk_power_off_flush:blk_lld <- $x24
	//DEBUG_VALUE: blk_power_off_flush:q <- $x23
	//DEBUG_VALUE: blk_power_off_flush:flag <- $x19
	//DEBUG_VALUE: blk_power_off_flush:hisi_queue <- [DW_OP_constu 128, DW_OP_minus, DW_OP_stack_value] $x27
	.loc	2 145 4                 // kernel/block/hisi-blk-flush.c:145:4
	mov	x0, x23
	blr	x8
.Ltmp63:
.LBB3_8:                                //   in Loop: Header=BB3_2 Depth=1
	//DEBUG_VALUE: blk_power_off_flush:flag <- $x19
	//DEBUG_VALUE: blk_power_off_flush:hisi_queue <- [DW_OP_constu 128, DW_OP_minus, DW_OP_stack_value] $x27
	//DEBUG_VALUE: __mptr <- undef
	.loc	2 0 0 is_stmt 0         // kernel/block/hisi-blk-flush.c:0:0
	ldr	x27, [x27]
.Ltmp64:
	//DEBUG_VALUE: blk_power_off_flush:hisi_queue <- [DW_OP_constu 128, DW_OP_minus, DW_OP_stack_value] $x27
	.loc	2 132 2 is_stmt 1       // kernel/block/hisi-blk-flush.c:132:2
	cmp	x27, x26
	b.ne	.LBB3_2
.Ltmp65:
.LBB3_9:
	//DEBUG_VALUE: blk_power_off_flush:flag <- $x19
	//DEBUG_VALUE: blk_power_off_flush:hisi_queue <- [DW_OP_constu 128, DW_OP_minus, DW_OP_stack_value] $x27
	.file	139 "/mnt/disk/jenkins/ci/workspace/chipset_pipeline_release/opensource/component_code/vendor/huawei/extra/build/build_script/kirin_kernel_release/kernel/include/linux/spinlock.h"
	.loc	139 372 2               // kernel/include/linux/spinlock.h:372:2
	adrp	x0, all_flush_q_lock
	add	x0, x0, :lo12:all_flush_q_lock
.Ltmp66:
	//DEBUG_VALUE: spin_unlock_irqrestore:lock <- $x0
	mov	x1, x19
	bl	_raw_spin_unlock_irqrestore
.Ltmp67:
	.loc	2 152 2                 // kernel/block/hisi-blk-flush.c:152:2
	adrp	x0, .L.str.5
	adrp	x1, .L__func__.blk_power_off_flush
	add	x0, x0, :lo12:.L.str.5
	add	x1, x1, :lo12:.L__func__.blk_power_off_flush
	bl	printk
	.loc	2 153 1                 // kernel/block/hisi-blk-flush.c:153:1
	ldp	x29, x30, [sp, #80]     // 16-byte Folded Reload
	ldp	x20, x19, [sp, #64]     // 16-byte Folded Reload
.Ltmp68:
	ldp	x22, x21, [sp, #48]     // 16-byte Folded Reload
	ldp	x24, x23, [sp, #32]     // 16-byte Folded Reload
	ldp	x26, x25, [sp, #16]     // 16-byte Folded Reload
	ldr	x27, [sp], #96          // 8-byte Folded Reload
.Ltmp69:
	ret
.Ltmp70:
.Lfunc_end3:
	.size	blk_power_off_flush, .Lfunc_end3-blk_power_off_flush
	.cfi_endproc
                                        // -- End function
	.globl	hisi_blk_flush_list_register // -- Begin function hisi_blk_flush_list_register
	.p2align	2
	.type	hisi_blk_flush_list_register,@function
hisi_blk_flush_list_register:           // @hisi_blk_flush_list_register
.Lfunc_begin4:
	.loc	2 157 0                 // kernel/block/hisi-blk-flush.c:157:0
	.cfi_startproc
// %bb.0:
	//DEBUG_VALUE: hisi_blk_flush_list_register:lld_list <- $x0
	stp	x20, x19, [sp, #-32]!   // 16-byte Folded Spill
	stp	x29, x30, [sp, #16]     // 16-byte Folded Spill
	add	x29, sp, #16            // =16
	.cfi_def_cfa w29, 16
	.cfi_offset w30, -8
	.cfi_offset w29, -16
	.cfi_offset w19, -24
	.cfi_offset w20, -32
.Ltmp71:
	.loc	2 160 2 prologue_end    // kernel/block/hisi-blk-flush.c:160:2
	adrp	x20, all_object_lock
	add	x20, x20, :lo12:all_object_lock
.Ltmp72:
	//DEBUG_VALUE: __write_once_size:p <- undef
	//DEBUG_VALUE: __write_once_size:res <- undef
	.loc	2 0 2 is_stmt 0         // kernel/block/hisi-blk-flush.c:0:2
	mov	x19, x0
.Ltmp73:
	//DEBUG_VALUE: hisi_blk_flush_list_register:lld_list <- $x19
	.loc	2 160 2                 // kernel/block/hisi-blk-flush.c:160:2
	mov	x0, x20
	bl	_raw_spin_lock_irqsave
.Ltmp74:
	.file	140 "/mnt/disk/jenkins/ci/workspace/chipset_pipeline_release/opensource/component_code/vendor/huawei/extra/build/build_script/kirin_kernel_release/kernel/include/linux/list.h"
	.loc	140 79 30 is_stmt 1     // kernel/include/linux/list.h:79:30
	adrp	x8, all_object_list
	add	x8, x8, :lo12:all_object_list
.Ltmp75:
	//DEBUG_VALUE: list_add:head <- $x8
	ldr	x9, [x8]
.Ltmp76:
	.loc	2 160 2                 // kernel/block/hisi-blk-flush.c:160:2
	mov	x1, x0
.Ltmp77:
	//DEBUG_VALUE: list_add:new <- $x19
	//DEBUG_VALUE: hisi_blk_flush_list_register:flag <- $x1
	.loc	140 79 30               // kernel/include/linux/list.h:79:30
	adrp	x10, all_object_list
.Ltmp78:
	//DEBUG_VALUE: __list_add:new <- $x19
	//DEBUG_VALUE: __list_add:next <- $x9
	//DEBUG_VALUE: __list_add:prev <- $x8
	.loc	139 372 2               // kernel/include/linux/spinlock.h:372:2
	mov	x0, x20
.Ltmp79:
	.loc	140 63 13               // kernel/include/linux/list.h:63:13
	str	x19, [x9, #8]
	.loc	140 64 12               // kernel/include/linux/list.h:64:12
	stp	x9, x8, [x19]
.Ltmp80:
	//DEBUG_VALUE: __write_once_size:size <- 8
	.loc	138 210 31              // kernel/include/linux/compiler.h:210:31
	str	x19, [x10, :lo12:all_object_list]
.Ltmp81:
	//DEBUG_VALUE: spin_unlock_irqrestore:flags <- $x1
	//DEBUG_VALUE: spin_unlock_irqrestore:lock <- $x20
	.loc	139 372 2               // kernel/include/linux/spinlock.h:372:2
	bl	_raw_spin_unlock_irqrestore
.Ltmp82:
	.loc	2 163 1                 // kernel/block/hisi-blk-flush.c:163:1
	ldp	x29, x30, [sp, #16]     // 16-byte Folded Reload
	ldp	x20, x19, [sp], #32     // 16-byte Folded Reload
.Ltmp83:
	ret
.Ltmp84:
.Lfunc_end4:
	.size	hisi_blk_flush_list_register, .Lfunc_end4-hisi_blk_flush_list_register
	.cfi_endproc
                                        // -- End function
	.globl	hisi_blk_flush_list_unregister // -- Begin function hisi_blk_flush_list_unregister
	.p2align	2
	.type	hisi_blk_flush_list_unregister,@function
hisi_blk_flush_list_unregister:         // @hisi_blk_flush_list_unregister
.Lfunc_begin5:
	.loc	2 166 0                 // kernel/block/hisi-blk-flush.c:166:0
	.cfi_startproc
// %bb.0:
	//DEBUG_VALUE: hisi_blk_flush_list_unregister:lld_list <- $x0
	stp	x20, x19, [sp, #-32]!   // 16-byte Folded Spill
	stp	x29, x30, [sp, #16]     // 16-byte Folded Spill
	add	x29, sp, #16            // =16
	.cfi_def_cfa w29, 16
	.cfi_offset w30, -8
	.cfi_offset w29, -16
	.cfi_offset w19, -24
	.cfi_offset w20, -32
.Ltmp85:
	.loc	2 169 2 prologue_end    // kernel/block/hisi-blk-flush.c:169:2
	adrp	x20, all_object_lock
	add	x20, x20, :lo12:all_object_lock
	mov	x19, x0
.Ltmp86:
	//DEBUG_VALUE: hisi_blk_flush_list_unregister:lld_list <- $x19
	mov	x0, x20
	bl	_raw_spin_lock_irqsave
.Ltmp87:
	.loc	140 120 33              // kernel/include/linux/list.h:120:33
	ldp	x8, x9, [x19]
.Ltmp88:
	//DEBUG_VALUE: __list_del:prev <- $x9
	//DEBUG_VALUE: __list_del:next <- $x8
	.loc	2 169 2                 // kernel/block/hisi-blk-flush.c:169:2
	mov	x1, x0
.Ltmp89:
	//DEBUG_VALUE: __list_del_entry:entry <- $x19
	//DEBUG_VALUE: list_del_init:entry <- $x19
	//DEBUG_VALUE: hisi_blk_flush_list_unregister:flag <- $x1
	.loc	139 372 2               // kernel/include/linux/spinlock.h:372:2
	mov	x0, x20
.Ltmp90:
	.loc	140 105 13              // kernel/include/linux/list.h:105:13
	str	x9, [x8, #8]
.Ltmp91:
	//DEBUG_VALUE: __write_once_size:p <- $x9
	//DEBUG_VALUE: __write_once_size:size <- 8
	//DEBUG_VALUE: __write_once_size:res <- undef
	.loc	138 210 31              // kernel/include/linux/compiler.h:210:31
	str	x8, [x9]
.Ltmp92:
	//DEBUG_VALUE: __write_once_size:p <- $x19
	//DEBUG_VALUE: __write_once_size:size <- 8
	//DEBUG_VALUE: __write_once_size:res <- undef
	//DEBUG_VALUE: INIT_LIST_HEAD:list <- $x19
	.loc	138 210 31 is_stmt 0    // kernel/include/linux/compiler.h:210:31
	str	x19, [x19]
.Ltmp93:
	.loc	140 29 13 is_stmt 1     // kernel/include/linux/list.h:29:13
	str	x19, [x19, #8]
.Ltmp94:
	//DEBUG_VALUE: spin_unlock_irqrestore:flags <- $x1
	//DEBUG_VALUE: spin_unlock_irqrestore:lock <- $x20
	.loc	139 372 2               // kernel/include/linux/spinlock.h:372:2
	bl	_raw_spin_unlock_irqrestore
.Ltmp95:
	.loc	2 172 1                 // kernel/block/hisi-blk-flush.c:172:1
	ldp	x29, x30, [sp, #16]     // 16-byte Folded Reload
	ldp	x20, x19, [sp], #32     // 16-byte Folded Reload
.Ltmp96:
	ret
.Ltmp97:
.Lfunc_end5:
	.size	hisi_blk_flush_list_unregister, .Lfunc_end5-hisi_blk_flush_list_unregister
	.cfi_endproc
                                        // -- End function
	.globl	hisi_blk_order_panic_wait_flush // -- Begin function hisi_blk_order_panic_wait_flush
	.p2align	2
	.type	hisi_blk_order_panic_wait_flush,@function
hisi_blk_order_panic_wait_flush:        // @hisi_blk_order_panic_wait_flush
.Lfunc_begin6:
	.loc	2 175 0                 // kernel/block/hisi-blk-flush.c:175:0
	.cfi_startproc
// %bb.0:
	stp	x26, x25, [sp, #-80]!   // 16-byte Folded Spill
	stp	x24, x23, [sp, #16]     // 16-byte Folded Spill
	stp	x22, x21, [sp, #32]     // 16-byte Folded Spill
	stp	x20, x19, [sp, #48]     // 16-byte Folded Spill
	stp	x29, x30, [sp, #64]     // 16-byte Folded Spill
	add	x29, sp, #64            // =64
	.cfi_def_cfa w29, 16
	.cfi_offset w30, -8
	.cfi_offset w29, -16
	.cfi_offset w19, -24
	.cfi_offset w20, -32
	.cfi_offset w21, -40
	.cfi_offset w22, -48
	.cfi_offset w23, -56
	.cfi_offset w24, -64
	.cfi_offset w25, -72
	.cfi_offset w26, -80
.Ltmp98:
	//DEBUG_VALUE: hisi_blk_order_panic_wait_flush:sleep_count <- 200
	//DEBUG_VALUE: hisi_blk_order_panic_wait_flush:need_flush <- 0
	//DEBUG_VALUE: hisi_blk_order_panic_wait_flush:blk_lld <- 0
	.loc	2 181 2 prologue_end    // kernel/block/hisi-blk-flush.c:181:2
	adrp	x19, .L__func__.hisi_blk_order_panic_wait_flush
	adrp	x0, .L.str.6
	add	x19, x19, :lo12:.L__func__.hisi_blk_order_panic_wait_flush
	add	x0, x0, :lo12:.L.str.6
	mov	x1, x19
	bl	printk
	adrp	x20, all_object_lock
	adrp	x25, all_object_list
	adrp	x21, .L.str.7
	mov	w24, #200
.Ltmp99:
	//DEBUG_VALUE: hisi_blk_order_panic_wait_flush:need_flush <- undef
	.loc	2 0 2 is_stmt 0         // kernel/block/hisi-blk-flush.c:0:2
	add	x20, x20, :lo12:all_object_lock
	add	x25, x25, :lo12:all_object_list
	add	x21, x21, :lo12:.L.str.7
.LBB6_1:                                // =>This Loop Header: Depth=1
                                        //     Child Loop BB6_3 Depth 2
.Ltmp100:
	//DEBUG_VALUE: hisi_blk_order_panic_wait_flush:sleep_count <- $w24
	//DEBUG_VALUE: hisi_blk_order_panic_wait_flush:sleep_count <- [DW_OP_constu 1, DW_OP_minus, DW_OP_stack_value] $w24
	.loc	2 183 3 is_stmt 1       // kernel/block/hisi-blk-flush.c:183:3
	mov	w0, #35160
	movk	w0, #65, lsl #16
	bl	__const_udelay
.Ltmp101:
	.loc	2 184 3                 // kernel/block/hisi-blk-flush.c:184:3
	mov	x0, x20
	bl	_raw_spin_lock_irqsave
.Ltmp102:
	.loc	2 0 0 is_stmt 0         // kernel/block/hisi-blk-flush.c:0:0
	ldr	x26, [x25]
.Ltmp103:
	//DEBUG_VALUE: hisi_blk_order_panic_wait_flush:blk_lld <- [DW_OP_constu 528, DW_OP_minus, DW_OP_stack_value] $x26
	//DEBUG_VALUE: hisi_blk_order_panic_wait_flush:need_flush <- undef
	.loc	2 184 3                 // kernel/block/hisi-blk-flush.c:184:3
	mov	x22, x0
.Ltmp104:
	//DEBUG_VALUE: hisi_blk_order_panic_wait_flush:flags <- $x22
	//DEBUG_VALUE: spin_unlock_irqrestore:flags <- $x22
	.loc	2 185 3 is_stmt 1       // kernel/block/hisi-blk-flush.c:185:3
	cmp	x26, x25
	b.eq	.LBB6_11
.Ltmp105:
// %bb.2:                               //   in Loop: Header=BB6_1 Depth=1
	//DEBUG_VALUE: spin_unlock_irqrestore:flags <- $x22
	//DEBUG_VALUE: hisi_blk_order_panic_wait_flush:flags <- $x22
	//DEBUG_VALUE: hisi_blk_order_panic_wait_flush:blk_lld <- [DW_OP_constu 528, DW_OP_minus, DW_OP_stack_value] $x26
	//DEBUG_VALUE: hisi_blk_order_panic_wait_flush:sleep_count <- $w24
	.loc	2 0 3 is_stmt 0         // kernel/block/hisi-blk-flush.c:0:3
	mov	w23, wzr
.Ltmp106:
.LBB6_3:                                //   Parent Loop BB6_1 Depth=1
                                        // =>  This Inner Loop Header: Depth=2
	//DEBUG_VALUE: hisi_blk_order_panic_wait_flush:flags <- $x22
	//DEBUG_VALUE: hisi_blk_order_panic_wait_flush:blk_lld <- [DW_OP_constu 528, DW_OP_minus, DW_OP_stack_value] $x26
	//DEBUG_VALUE: hisi_blk_order_panic_wait_flush:sleep_count <- $w24
	.loc	2 186 17 is_stmt 1      // kernel/block/hisi-blk-flush.c:186:17
	sub	x8, x26, #524           // =524
	ldr	w2, [x8]
.Ltmp107:
	.loc	2 186 8 is_stmt 0       // kernel/block/hisi-blk-flush.c:186:8
	cmp	w2, #2                  // =2
	b.ne	.LBB6_6
.Ltmp108:
// %bb.4:                               //   in Loop: Header=BB6_3 Depth=2
	//DEBUG_VALUE: hisi_blk_order_panic_wait_flush:flags <- $x22
	//DEBUG_VALUE: hisi_blk_order_panic_wait_flush:blk_lld <- [DW_OP_constu 528, DW_OP_minus, DW_OP_stack_value] $x26
	//DEBUG_VALUE: hisi_blk_order_panic_wait_flush:sleep_count <- $w24
	.loc	2 192 19 is_stmt 1      // kernel/block/hisi-blk-flush.c:192:19
	sub	x8, x26, #504           // =504
	ldr	x8, [x8]
	.loc	2 192 28 is_stmt 0      // kernel/block/hisi-blk-flush.c:192:28
	tst	x8, #0x100
	cset	w9, eq
.Ltmp109:
	.loc	2 192 8                 // kernel/block/hisi-blk-flush.c:192:8
	orr	w9, w23, w9
	tbz	w9, #0, .LBB6_7
.Ltmp110:
// %bb.5:                               //   in Loop: Header=BB6_3 Depth=2
	//DEBUG_VALUE: hisi_blk_order_panic_wait_flush:flags <- $x22
	//DEBUG_VALUE: hisi_blk_order_panic_wait_flush:blk_lld <- [DW_OP_constu 528, DW_OP_minus, DW_OP_stack_value] $x26
	//DEBUG_VALUE: hisi_blk_order_panic_wait_flush:sleep_count <- $w24
	.loc	2 0 8                   // kernel/block/hisi-blk-flush.c:0:8
	ubfx	x8, x8, #8, #1
	orr	w23, w23, w8
	b	.LBB6_8
.Ltmp111:
.LBB6_6:                                //   in Loop: Header=BB6_3 Depth=2
	//DEBUG_VALUE: hisi_blk_order_panic_wait_flush:flags <- $x22
	//DEBUG_VALUE: hisi_blk_order_panic_wait_flush:blk_lld <- [DW_OP_constu 528, DW_OP_minus, DW_OP_stack_value] $x26
	//DEBUG_VALUE: hisi_blk_order_panic_wait_flush:sleep_count <- $w24
	.loc	2 187 5 is_stmt 1       // kernel/block/hisi-blk-flush.c:187:5
	mov	x0, x21
	mov	x1, x19
	bl	printk
	b	.LBB6_8
.Ltmp112:
.LBB6_7:                                //   in Loop: Header=BB6_3 Depth=2
	//DEBUG_VALUE: hisi_blk_order_panic_wait_flush:flags <- $x22
	//DEBUG_VALUE: hisi_blk_order_panic_wait_flush:blk_lld <- [DW_OP_constu 528, DW_OP_minus, DW_OP_stack_value] $x26
	//DEBUG_VALUE: hisi_blk_order_panic_wait_flush:sleep_count <- $w24
	.loc	2 0 0 is_stmt 0         // kernel/block/hisi-blk-flush.c:0:0
	sub	x0, x26, #528           // =528
.Ltmp113:
	.loc	2 195 5 is_stmt 1       // kernel/block/hisi-blk-flush.c:195:5
	bl	ufs_order_panic_wait_datasync_handle
	mov	w23, w0
.Ltmp114:
.LBB6_8:                                //   in Loop: Header=BB6_3 Depth=2
	//DEBUG_VALUE: hisi_blk_order_panic_wait_flush:flags <- $x22
	//DEBUG_VALUE: hisi_blk_order_panic_wait_flush:blk_lld <- [DW_OP_constu 528, DW_OP_minus, DW_OP_stack_value] $x26
	//DEBUG_VALUE: hisi_blk_order_panic_wait_flush:sleep_count <- $w24
	//DEBUG_VALUE: hisi_blk_order_panic_wait_flush:need_flush <- undef
	//DEBUG_VALUE: __mptr <- undef
	.loc	2 0 0 is_stmt 0         // kernel/block/hisi-blk-flush.c:0:0
	ldr	x26, [x26]
.Ltmp115:
	//DEBUG_VALUE: hisi_blk_order_panic_wait_flush:blk_lld <- [DW_OP_constu 528, DW_OP_minus, DW_OP_stack_value] $x26
	//DEBUG_VALUE: hisi_blk_order_panic_wait_flush:need_flush <- undef
	.loc	2 185 3 is_stmt 1       // kernel/block/hisi-blk-flush.c:185:3
	cmp	x26, x25
	b.ne	.LBB6_3
.Ltmp116:
// %bb.9:                               //   in Loop: Header=BB6_1 Depth=1
	//DEBUG_VALUE: hisi_blk_order_panic_wait_flush:flags <- $x22
	//DEBUG_VALUE: hisi_blk_order_panic_wait_flush:blk_lld <- [DW_OP_constu 528, DW_OP_minus, DW_OP_stack_value] $x26
	//DEBUG_VALUE: hisi_blk_order_panic_wait_flush:sleep_count <- $w24
	//DEBUG_VALUE: spin_unlock_irqrestore:lock <- $x20
	.loc	139 372 2               // kernel/include/linux/spinlock.h:372:2
	mov	x0, x20
	mov	x1, x22
	bl	_raw_spin_unlock_irqrestore
.Ltmp117:
	.loc	2 198 7                 // kernel/block/hisi-blk-flush.c:198:7
	tbnz	w23, #0, .LBB6_13
.Ltmp118:
// %bb.10:                              //   in Loop: Header=BB6_1 Depth=1
	//DEBUG_VALUE: hisi_blk_order_panic_wait_flush:flags <- $x22
	//DEBUG_VALUE: hisi_blk_order_panic_wait_flush:blk_lld <- [DW_OP_constu 528, DW_OP_minus, DW_OP_stack_value] $x26
	//DEBUG_VALUE: hisi_blk_order_panic_wait_flush:sleep_count <- $w24
	.loc	2 203 14                // kernel/block/hisi-blk-flush.c:203:14
	subs	w24, w24, #1            // =1
.Ltmp119:
	//DEBUG_VALUE: hisi_blk_order_panic_wait_flush:need_flush <- undef
	.loc	2 0 14 is_stmt 0        // kernel/block/hisi-blk-flush.c:0:14
	b.ne	.LBB6_1
	b	.LBB6_12
.Ltmp120:
.LBB6_11:                               //   in Loop: Header=BB6_1 Depth=1
	//DEBUG_VALUE: spin_unlock_irqrestore:flags <- $x22
	//DEBUG_VALUE: hisi_blk_order_panic_wait_flush:flags <- $x22
	//DEBUG_VALUE: hisi_blk_order_panic_wait_flush:blk_lld <- [DW_OP_constu 528, DW_OP_minus, DW_OP_stack_value] $x26
	//DEBUG_VALUE: hisi_blk_order_panic_wait_flush:sleep_count <- $w24
	//DEBUG_VALUE: spin_unlock_irqrestore:lock <- $x20
	.loc	139 372 2 is_stmt 1     // kernel/include/linux/spinlock.h:372:2
	mov	x0, x20
	mov	x1, x22
	bl	_raw_spin_unlock_irqrestore
.Ltmp121:
	.loc	2 203 14                // kernel/block/hisi-blk-flush.c:203:14
	subs	w24, w24, #1            // =1
.Ltmp122:
	//DEBUG_VALUE: hisi_blk_order_panic_wait_flush:need_flush <- undef
	.loc	2 182 2                 // kernel/block/hisi-blk-flush.c:182:2
	b.ne	.LBB6_1
.Ltmp123:
.LBB6_12:
	//DEBUG_VALUE: hisi_blk_order_panic_wait_flush:flags <- $x22
	//DEBUG_VALUE: hisi_blk_order_panic_wait_flush:blk_lld <- [DW_OP_constu 528, DW_OP_minus, DW_OP_stack_value] $x26
	.loc	2 205 2                 // kernel/block/hisi-blk-flush.c:205:2
	orr	w0, wzr, #0x1
	bl	blk_power_off_flush
	.loc	2 206 2                 // kernel/block/hisi-blk-flush.c:206:2
	adrp	x0, .L.str.9
	add	x0, x0, :lo12:.L.str.9
	b	.LBB6_14
.Ltmp124:
.LBB6_13:
	//DEBUG_VALUE: hisi_blk_order_panic_wait_flush:flags <- $x22
	//DEBUG_VALUE: hisi_blk_order_panic_wait_flush:blk_lld <- [DW_OP_constu 528, DW_OP_minus, DW_OP_stack_value] $x26
	//DEBUG_VALUE: hisi_blk_order_panic_wait_flush:sleep_count <- $w24
	.loc	2 199 4                 // kernel/block/hisi-blk-flush.c:199:4
	orr	w0, wzr, #0x1
	bl	blk_power_off_flush
	.loc	2 200 4                 // kernel/block/hisi-blk-flush.c:200:4
	adrp	x0, .L.str.8
	add	x0, x0, :lo12:.L.str.8
.Ltmp125:
.LBB6_14:
	//DEBUG_VALUE: hisi_blk_order_panic_wait_flush:flags <- $x22
	//DEBUG_VALUE: hisi_blk_order_panic_wait_flush:blk_lld <- [DW_OP_constu 528, DW_OP_minus, DW_OP_stack_value] $x26
	.loc	2 0 0 is_stmt 0         // kernel/block/hisi-blk-flush.c:0:0
	adrp	x1, .L__func__.hisi_blk_order_panic_wait_flush
	add	x1, x1, :lo12:.L__func__.hisi_blk_order_panic_wait_flush
	bl	printk
	.loc	2 208 1 is_stmt 1       // kernel/block/hisi-blk-flush.c:208:1
	ldp	x29, x30, [sp, #64]     // 16-byte Folded Reload
	ldp	x20, x19, [sp, #48]     // 16-byte Folded Reload
	ldp	x22, x21, [sp, #32]     // 16-byte Folded Reload
.Ltmp126:
	ldp	x24, x23, [sp, #16]     // 16-byte Folded Reload
	ldp	x26, x25, [sp], #80     // 16-byte Folded Reload
.Ltmp127:
	ret
.Ltmp128:
.Lfunc_end6:
	.size	hisi_blk_order_panic_wait_flush, .Lfunc_end6-hisi_blk_order_panic_wait_flush
	.cfi_endproc
                                        // -- End function
	.globl	hisi_blk_panic_flush    // -- Begin function hisi_blk_panic_flush
	.p2align	2
	.type	hisi_blk_panic_flush,@function
hisi_blk_panic_flush:                   // @hisi_blk_panic_flush
.Lfunc_begin7:
	.loc	2 211 0                 // kernel/block/hisi-blk-flush.c:211:0
	.cfi_startproc
// %bb.0:
	stp	x24, x23, [sp, #-64]!   // 16-byte Folded Spill
	stp	x22, x21, [sp, #16]     // 16-byte Folded Spill
	stp	x20, x19, [sp, #32]     // 16-byte Folded Spill
	stp	x29, x30, [sp, #48]     // 16-byte Folded Spill
	add	x29, sp, #48            // =48
	.cfi_def_cfa w29, 16
	.cfi_offset w30, -8
	.cfi_offset w29, -16
	.cfi_offset w19, -24
	.cfi_offset w20, -32
	.cfi_offset w21, -40
	.cfi_offset w22, -48
	.cfi_offset w23, -56
	.cfi_offset w24, -64
.Ltmp129:
	//DEBUG_VALUE: hisi_blk_panic_flush:blk_lld <- 0
	//DEBUG_VALUE: hisi_blk_panic_flush:order_enable <- 0
	.loc	2 216 2 prologue_end    // kernel/block/hisi-blk-flush.c:216:2
	mov	w0, wzr
	bl	blk_power_off_flush
.Ltmp130:
	.loc	2 218 2                 // kernel/block/hisi-blk-flush.c:218:2
	adrp	x0, all_object_lock
	add	x0, x0, :lo12:all_object_lock
	bl	_raw_spin_lock_irqsave
.Ltmp131:
	.loc	2 0 0 is_stmt 0         // kernel/block/hisi-blk-flush.c:0:0
	adrp	x22, all_object_list
	add	x22, x22, :lo12:all_object_list
	ldr	x23, [x22]
.Ltmp132:
	//DEBUG_VALUE: hisi_blk_panic_flush:blk_lld <- [DW_OP_constu 528, DW_OP_minus, DW_OP_stack_value] $x23
	//DEBUG_VALUE: hisi_blk_panic_flush:order_enable <- undef
	.loc	2 218 2                 // kernel/block/hisi-blk-flush.c:218:2
	mov	x19, x0
.Ltmp133:
	//DEBUG_VALUE: hisi_blk_panic_flush:flags <- $x19
	//DEBUG_VALUE: spin_unlock_irqrestore:flags <- $x19
	.loc	2 219 2 is_stmt 1       // kernel/block/hisi-blk-flush.c:219:2
	cmp	x23, x22
	b.eq	.LBB7_9
.Ltmp134:
// %bb.1:
	//DEBUG_VALUE: spin_unlock_irqrestore:flags <- $x19
	//DEBUG_VALUE: hisi_blk_panic_flush:flags <- $x19
	//DEBUG_VALUE: hisi_blk_panic_flush:blk_lld <- [DW_OP_constu 528, DW_OP_minus, DW_OP_stack_value] $x23
	.loc	2 0 2 is_stmt 0         // kernel/block/hisi-blk-flush.c:0:2
	adrp	x20, .L.str.7
	adrp	x21, .L__func__.hisi_blk_panic_flush
	mov	w24, wzr
	add	x20, x20, :lo12:.L.str.7
	add	x21, x21, :lo12:.L__func__.hisi_blk_panic_flush
.Ltmp135:
.LBB7_2:                                // =>This Inner Loop Header: Depth=1
	//DEBUG_VALUE: hisi_blk_panic_flush:flags <- $x19
	//DEBUG_VALUE: hisi_blk_panic_flush:blk_lld <- [DW_OP_constu 528, DW_OP_minus, DW_OP_stack_value] $x23
	.loc	2 220 16 is_stmt 1      // kernel/block/hisi-blk-flush.c:220:16
	sub	x8, x23, #524           // =524
	ldr	w2, [x8]
.Ltmp136:
	.loc	2 220 7 is_stmt 0       // kernel/block/hisi-blk-flush.c:220:7
	cmp	w2, #2                  // =2
	b.ne	.LBB7_5
.Ltmp137:
// %bb.3:                               //   in Loop: Header=BB7_2 Depth=1
	//DEBUG_VALUE: hisi_blk_panic_flush:flags <- $x19
	//DEBUG_VALUE: hisi_blk_panic_flush:blk_lld <- [DW_OP_constu 528, DW_OP_minus, DW_OP_stack_value] $x23
	.loc	2 226 7 is_stmt 1       // kernel/block/hisi-blk-flush.c:226:7
	sub	x8, x23, #503           // =503
	ldrb	w8, [x8]
	tbz	w8, #0, .LBB7_6
.Ltmp138:
// %bb.4:                               //   in Loop: Header=BB7_2 Depth=1
	//DEBUG_VALUE: hisi_blk_panic_flush:flags <- $x19
	//DEBUG_VALUE: hisi_blk_panic_flush:blk_lld <- [DW_OP_constu 528, DW_OP_minus, DW_OP_stack_value] $x23
	.loc	2 0 0 is_stmt 0         // kernel/block/hisi-blk-flush.c:0:0
	sub	x0, x23, #528           // =528
.Ltmp139:
	//DEBUG_VALUE: hisi_blk_panic_flush:order_enable <- 1
	.loc	2 228 4 is_stmt 1       // kernel/block/hisi-blk-flush.c:228:4
	bl	ufs_order_panic_datasync_handle
	orr	w24, wzr, #0x1
	b	.LBB7_6
.Ltmp140:
.LBB7_5:                                //   in Loop: Header=BB7_2 Depth=1
	//DEBUG_VALUE: hisi_blk_panic_flush:flags <- $x19
	//DEBUG_VALUE: hisi_blk_panic_flush:blk_lld <- [DW_OP_constu 528, DW_OP_minus, DW_OP_stack_value] $x23
	.loc	2 221 4                 // kernel/block/hisi-blk-flush.c:221:4
	mov	x0, x20
	mov	x1, x21
	bl	printk
.Ltmp141:
.LBB7_6:                                //   in Loop: Header=BB7_2 Depth=1
	//DEBUG_VALUE: hisi_blk_panic_flush:flags <- $x19
	//DEBUG_VALUE: hisi_blk_panic_flush:blk_lld <- [DW_OP_constu 528, DW_OP_minus, DW_OP_stack_value] $x23
	//DEBUG_VALUE: hisi_blk_panic_flush:order_enable <- undef
	//DEBUG_VALUE: __mptr <- undef
	.loc	2 0 0 is_stmt 0         // kernel/block/hisi-blk-flush.c:0:0
	ldr	x23, [x23]
.Ltmp142:
	//DEBUG_VALUE: hisi_blk_panic_flush:blk_lld <- [DW_OP_constu 528, DW_OP_minus, DW_OP_stack_value] $x23
	//DEBUG_VALUE: hisi_blk_panic_flush:order_enable <- undef
	.loc	2 219 2 is_stmt 1       // kernel/block/hisi-blk-flush.c:219:2
	cmp	x23, x22
	b.ne	.LBB7_2
.Ltmp143:
// %bb.7:
	//DEBUG_VALUE: hisi_blk_panic_flush:flags <- $x19
	//DEBUG_VALUE: hisi_blk_panic_flush:blk_lld <- [DW_OP_constu 528, DW_OP_minus, DW_OP_stack_value] $x23
	.loc	139 372 2               // kernel/include/linux/spinlock.h:372:2
	adrp	x0, all_object_lock
	add	x0, x0, :lo12:all_object_lock
.Ltmp144:
	//DEBUG_VALUE: spin_unlock_irqrestore:lock <- $x0
	mov	x1, x19
	bl	_raw_spin_unlock_irqrestore
.Ltmp145:
	.loc	2 233 6                 // kernel/block/hisi-blk-flush.c:233:6
	tbz	w24, #0, .LBB7_10
.Ltmp146:
// %bb.8:
	//DEBUG_VALUE: hisi_blk_panic_flush:flags <- $x19
	//DEBUG_VALUE: hisi_blk_panic_flush:blk_lld <- [DW_OP_constu 528, DW_OP_minus, DW_OP_stack_value] $x23
	.loc	2 234 3                 // kernel/block/hisi-blk-flush.c:234:3
	bl	hisi_blk_order_panic_wait_flush
	b	.LBB7_10
.Ltmp147:
.LBB7_9:
	//DEBUG_VALUE: spin_unlock_irqrestore:flags <- $x19
	//DEBUG_VALUE: hisi_blk_panic_flush:flags <- $x19
	//DEBUG_VALUE: hisi_blk_panic_flush:blk_lld <- [DW_OP_constu 528, DW_OP_minus, DW_OP_stack_value] $x23
	.loc	139 372 2               // kernel/include/linux/spinlock.h:372:2
	adrp	x0, all_object_lock
	add	x0, x0, :lo12:all_object_lock
.Ltmp148:
	//DEBUG_VALUE: spin_unlock_irqrestore:lock <- $x0
	mov	x1, x19
	bl	_raw_spin_unlock_irqrestore
.Ltmp149:
.LBB7_10:
	//DEBUG_VALUE: hisi_blk_panic_flush:flags <- $x19
	//DEBUG_VALUE: hisi_blk_panic_flush:blk_lld <- [DW_OP_constu 528, DW_OP_minus, DW_OP_stack_value] $x23
	.loc	2 237 1                 // kernel/block/hisi-blk-flush.c:237:1
	ldp	x29, x30, [sp, #48]     // 16-byte Folded Reload
	ldp	x20, x19, [sp, #32]     // 16-byte Folded Reload
.Ltmp150:
	ldp	x22, x21, [sp, #16]     // 16-byte Folded Reload
	ldp	x24, x23, [sp], #64     // 16-byte Folded Reload
.Ltmp151:
	ret
.Ltmp152:
.Lfunc_end7:
	.size	hisi_blk_panic_flush, .Lfunc_end7-hisi_blk_panic_flush
	.cfi_endproc
                                        // -- End function
	.globl	hisi_blk_poweroff_flush_notifier_call // -- Begin function hisi_blk_poweroff_flush_notifier_call
	.p2align	2
	.type	hisi_blk_poweroff_flush_notifier_call,@function
hisi_blk_poweroff_flush_notifier_call:  // @hisi_blk_poweroff_flush_notifier_call
.Lfunc_begin8:
	.loc	2 268 0                 // kernel/block/hisi-blk-flush.c:268:0
	.cfi_startproc
// %bb.0:
	//DEBUG_VALUE: hisi_blk_poweroff_flush_notifier_call:powerkey_nb <- $x0
	//DEBUG_VALUE: hisi_blk_poweroff_flush_notifier_call:event <- $x1
	//DEBUG_VALUE: hisi_blk_poweroff_flush_notifier_call:event <- $x1
	//DEBUG_VALUE: hisi_blk_poweroff_flush_notifier_call:data <- $x2
	str	x23, [sp, #-64]!        // 8-byte Folded Spill
	stp	x22, x21, [sp, #16]     // 16-byte Folded Spill
	stp	x20, x19, [sp, #32]     // 16-byte Folded Spill
	stp	x29, x30, [sp, #48]     // 16-byte Folded Spill
	add	x29, sp, #48            // =48
	.cfi_def_cfa w29, 16
	.cfi_offset w30, -8
	.cfi_offset w29, -16
	.cfi_offset w19, -24
	.cfi_offset w20, -32
	.cfi_offset w21, -40
	.cfi_offset w22, -48
	.cfi_offset w23, -64
.Ltmp153:
	.loc	2 269 6 prologue_end    // kernel/block/hisi-blk-flush.c:269:6
	cmp	x1, #2                  // =2
	b.eq	.LBB8_3
.Ltmp154:
// %bb.1:
	//DEBUG_VALUE: hisi_blk_poweroff_flush_notifier_call:data <- $x2
	//DEBUG_VALUE: hisi_blk_poweroff_flush_notifier_call:event <- $x1
	//DEBUG_VALUE: hisi_blk_poweroff_flush_notifier_call:powerkey_nb <- $x0
	cmp	x1, #3                  // =3
	b.ne	.LBB8_14
.Ltmp155:
// %bb.2:
	//DEBUG_VALUE: hisi_blk_poweroff_flush_notifier_call:data <- $x2
	//DEBUG_VALUE: hisi_blk_poweroff_flush_notifier_call:event <- $x1
	//DEBUG_VALUE: hisi_blk_poweroff_flush_notifier_call:powerkey_nb <- $x0
	.loc	2 270 3                 // kernel/block/hisi-blk-flush.c:270:3
	orr	w0, wzr, #0x1
.Ltmp156:
	bl	blk_power_off_flush
.Ltmp157:
	.loc	2 0 3 is_stmt 0         // kernel/block/hisi-blk-flush.c:0:3
	b	.LBB8_14
.LBB8_3:
.Ltmp158:
	//DEBUG_VALUE: hisi_blk_poweroff_flush_notifier_call:data <- $x2
	//DEBUG_VALUE: hisi_blk_poweroff_flush_notifier_call:event <- $x1
	//DEBUG_VALUE: hisi_blk_poweroff_flush_notifier_call:powerkey_nb <- $x0
	//DEBUG_VALUE: hisi_blk_order_poweroff_proc:blk_lld <- 0
	//DEBUG_VALUE: hisi_blk_order_poweroff_proc:tag_set <- 0
	.loc	2 246 2 is_stmt 1       // kernel/block/hisi-blk-flush.c:246:2
	adrp	x0, all_object_lock
.Ltmp159:
	add	x0, x0, :lo12:all_object_lock
	bl	_raw_spin_lock_irqsave
.Ltmp160:
	.loc	2 0 0 is_stmt 0         // kernel/block/hisi-blk-flush.c:0:0
	adrp	x22, all_object_list
	add	x22, x22, :lo12:all_object_list
	ldr	x23, [x22]
.Ltmp161:
	//DEBUG_VALUE: hisi_blk_order_poweroff_proc:blk_lld <- [DW_OP_constu 528, DW_OP_minus, DW_OP_stack_value] $x23
	.loc	2 246 2                 // kernel/block/hisi-blk-flush.c:246:2
	mov	x19, x0
.Ltmp162:
	//DEBUG_VALUE: hisi_blk_order_poweroff_proc:flags <- $x19
	//DEBUG_VALUE: spin_unlock_irqrestore:flags <- $x19
	.loc	2 247 2 is_stmt 1       // kernel/block/hisi-blk-flush.c:247:2
	cmp	x23, x22
	b.eq	.LBB8_13
.Ltmp163:
// %bb.4:
	//DEBUG_VALUE: spin_unlock_irqrestore:flags <- $x19
	//DEBUG_VALUE: hisi_blk_order_poweroff_proc:flags <- $x19
	//DEBUG_VALUE: hisi_blk_order_poweroff_proc:blk_lld <- [DW_OP_constu 528, DW_OP_minus, DW_OP_stack_value] $x23
	.loc	2 0 2 is_stmt 0         // kernel/block/hisi-blk-flush.c:0:2
	adrp	x20, .L.str.7
	adrp	x21, .L__func__.hisi_blk_order_poweroff_proc
	add	x20, x20, :lo12:.L.str.7
	add	x21, x21, :lo12:.L__func__.hisi_blk_order_poweroff_proc
.Ltmp164:
.LBB8_5:                                // =>This Inner Loop Header: Depth=1
	//DEBUG_VALUE: hisi_blk_order_poweroff_proc:flags <- $x19
	//DEBUG_VALUE: hisi_blk_order_poweroff_proc:blk_lld <- [DW_OP_constu 528, DW_OP_minus, DW_OP_stack_value] $x23
	.loc	2 248 16 is_stmt 1      // kernel/block/hisi-blk-flush.c:248:16
	sub	x8, x23, #524           // =524
	ldr	w2, [x8]
.Ltmp165:
	.loc	2 248 7 is_stmt 0       // kernel/block/hisi-blk-flush.c:248:7
	cmp	w2, #2                  // =2
	b.ne	.LBB8_11
.Ltmp166:
// %bb.6:                               //   in Loop: Header=BB8_5 Depth=1
	//DEBUG_VALUE: hisi_blk_order_poweroff_proc:flags <- $x19
	//DEBUG_VALUE: hisi_blk_order_poweroff_proc:blk_lld <- [DW_OP_constu 528, DW_OP_minus, DW_OP_stack_value] $x23
	.loc	2 254 7 is_stmt 1       // kernel/block/hisi-blk-flush.c:254:7
	sub	x8, x23, #503           // =503
	ldrb	w8, [x8]
	tbz	w8, #0, .LBB8_12
.Ltmp167:
// %bb.7:                               //   in Loop: Header=BB8_5 Depth=1
	//DEBUG_VALUE: hisi_blk_order_poweroff_proc:flags <- $x19
	//DEBUG_VALUE: hisi_blk_order_poweroff_proc:blk_lld <- [DW_OP_constu 528, DW_OP_minus, DW_OP_stack_value] $x23
	.loc	2 256 48                // kernel/block/hisi-blk-flush.c:256:48
	sub	x8, x23, #520           // =520
	ldr	x8, [x8]
.Ltmp168:
	//DEBUG_VALUE: hisi_blk_order_poweroff_proc:tag_set <- $x8
	.loc	2 257 15                // kernel/block/hisi-blk-flush.c:257:15
	cbz	x8, .LBB8_12
.Ltmp169:
// %bb.8:                               //   in Loop: Header=BB8_5 Depth=1
	//DEBUG_VALUE: hisi_blk_order_poweroff_proc:tag_set <- $x8
	//DEBUG_VALUE: hisi_blk_order_poweroff_proc:flags <- $x19
	//DEBUG_VALUE: hisi_blk_order_poweroff_proc:blk_lld <- [DW_OP_constu 528, DW_OP_minus, DW_OP_stack_value] $x23
	.loc	2 257 27 is_stmt 0      // kernel/block/hisi-blk-flush.c:257:27
	ldr	x8, [x8, #584]
.Ltmp170:
	.loc	2 257 43                // kernel/block/hisi-blk-flush.c:257:43
	cbz	x8, .LBB8_12
.Ltmp171:
// %bb.9:                               //   in Loop: Header=BB8_5 Depth=1
	//DEBUG_VALUE: hisi_blk_order_poweroff_proc:flags <- $x19
	//DEBUG_VALUE: hisi_blk_order_poweroff_proc:blk_lld <- [DW_OP_constu 528, DW_OP_minus, DW_OP_stack_value] $x23
	.loc	2 258 31 is_stmt 1      // kernel/block/hisi-blk-flush.c:258:31
	ldr	x8, [x8, #24]
.Ltmp172:
	.loc	2 257 7                 // kernel/block/hisi-blk-flush.c:257:7
	cbz	x8, .LBB8_12
.Ltmp173:
// %bb.10:                              //   in Loop: Header=BB8_5 Depth=1
	//DEBUG_VALUE: hisi_blk_order_poweroff_proc:flags <- $x19
	//DEBUG_VALUE: hisi_blk_order_poweroff_proc:blk_lld <- [DW_OP_constu 528, DW_OP_minus, DW_OP_stack_value] $x23
	.loc	2 0 0 is_stmt 0         // kernel/block/hisi-blk-flush.c:0:0
	sub	x0, x23, #528           // =528
.Ltmp174:
	.loc	2 259 4 is_stmt 1       // kernel/block/hisi-blk-flush.c:259:4
	blr	x8
	b	.LBB8_12
.Ltmp175:
.LBB8_11:                               //   in Loop: Header=BB8_5 Depth=1
	//DEBUG_VALUE: hisi_blk_order_poweroff_proc:flags <- $x19
	//DEBUG_VALUE: hisi_blk_order_poweroff_proc:blk_lld <- [DW_OP_constu 528, DW_OP_minus, DW_OP_stack_value] $x23
	.loc	2 249 4                 // kernel/block/hisi-blk-flush.c:249:4
	mov	x0, x20
	mov	x1, x21
	bl	printk
.Ltmp176:
.LBB8_12:                               //   in Loop: Header=BB8_5 Depth=1
	//DEBUG_VALUE: hisi_blk_order_poweroff_proc:flags <- $x19
	//DEBUG_VALUE: hisi_blk_order_poweroff_proc:blk_lld <- [DW_OP_constu 528, DW_OP_minus, DW_OP_stack_value] $x23
	//DEBUG_VALUE: __mptr <- undef
	.loc	2 0 0 is_stmt 0         // kernel/block/hisi-blk-flush.c:0:0
	ldr	x23, [x23]
.Ltmp177:
	//DEBUG_VALUE: hisi_blk_order_poweroff_proc:blk_lld <- [DW_OP_constu 528, DW_OP_minus, DW_OP_stack_value] $x23
	.loc	2 247 2 is_stmt 1       // kernel/block/hisi-blk-flush.c:247:2
	cmp	x23, x22
	b.ne	.LBB8_5
.Ltmp178:
.LBB8_13:
	//DEBUG_VALUE: hisi_blk_order_poweroff_proc:flags <- $x19
	//DEBUG_VALUE: hisi_blk_order_poweroff_proc:blk_lld <- [DW_OP_constu 528, DW_OP_minus, DW_OP_stack_value] $x23
	.loc	139 372 2               // kernel/include/linux/spinlock.h:372:2
	adrp	x0, all_object_lock
	add	x0, x0, :lo12:all_object_lock
.Ltmp179:
	//DEBUG_VALUE: spin_unlock_irqrestore:lock <- $x0
	mov	x1, x19
	bl	_raw_spin_unlock_irqrestore
.Ltmp180:
.LBB8_14:
	.loc	2 274 2                 // kernel/block/hisi-blk-flush.c:274:2
	ldp	x29, x30, [sp, #48]     // 16-byte Folded Reload
	ldp	x20, x19, [sp, #32]     // 16-byte Folded Reload
	ldp	x22, x21, [sp, #16]     // 16-byte Folded Reload
	mov	w0, wzr
	ldr	x23, [sp], #64          // 8-byte Folded Reload
	ret
.Ltmp181:
.Lfunc_end8:
	.size	hisi_blk_poweroff_flush_notifier_call, .Lfunc_end8-hisi_blk_poweroff_flush_notifier_call
	.cfi_endproc
                                        // -- End function
	.section	.init.text,"ax",@progbits
	.globl	hisi_blk_flush_init     // -- Begin function hisi_blk_flush_init
	.p2align	2
	.type	hisi_blk_flush_init,@function
hisi_blk_flush_init:                    // @hisi_blk_flush_init
.Lfunc_begin9:
	.loc	2 283 0                 // kernel/block/hisi-blk-flush.c:283:0
	.cfi_startproc
// %bb.0:
	stp	x29, x30, [sp, #-16]!   // 16-byte Folded Spill
	mov	x29, sp
	.cfi_def_cfa w29, 16
	.cfi_offset w30, -8
	.cfi_offset w29, -16
.Ltmp182:
	.loc	2 284 9 prologue_end    // kernel/block/hisi-blk-flush.c:284:9
	adrp	x0, hisi_blk_poweroff_flush_nb
	add	x0, x0, :lo12:hisi_blk_poweroff_flush_nb
	bl	hisi_powerkey_register_notifier
	.loc	2 284 2 is_stmt 0       // kernel/block/hisi-blk-flush.c:284:2
	ldp	x29, x30, [sp], #16     // 16-byte Folded Reload
	ret
.Ltmp183:
.Lfunc_end9:
	.size	hisi_blk_flush_init, .Lfunc_end9-hisi_blk_flush_init
	.cfi_endproc
                                        // -- End function
	.text
	.globl	hisi_blk_flush_reduced_queue_unregister // -- Begin function hisi_blk_flush_reduced_queue_unregister
	.p2align	2
	.type	hisi_blk_flush_reduced_queue_unregister,@function
hisi_blk_flush_reduced_queue_unregister: // @hisi_blk_flush_reduced_queue_unregister
.Lfunc_begin10:
	.loc	2 299 0 is_stmt 1       // kernel/block/hisi-blk-flush.c:299:0
	.cfi_startproc
// %bb.0:
	//DEBUG_VALUE: hisi_blk_flush_reduced_queue_unregister:q <- $x0
	stp	x20, x19, [sp, #-32]!   // 16-byte Folded Spill
	stp	x29, x30, [sp, #16]     // 16-byte Folded Spill
	add	x29, sp, #16            // =16
	.cfi_def_cfa w29, 16
	.cfi_offset w30, -8
	.cfi_offset w29, -16
	.cfi_offset w19, -24
	.cfi_offset w20, -32
.Ltmp184:
	//DEBUG_VALUE: hisi_blk_flush_reduced_queue_unregister:hisi_queue <- [DW_OP_plus_uconst 1536, DW_OP_stack_value] $x0
	//DEBUG_VALUE: hisi_blk_flush_reduced_queue_unregister:flush_queue_node <- [DW_OP_plus_uconst 1664, DW_OP_stack_value] $x0
	.loc	2 304 18 prologue_end   // kernel/block/hisi-blk-flush.c:304:18
	ldr	w8, [x0, #1680]
.Ltmp185:
	.loc	2 304 6 is_stmt 0       // kernel/block/hisi-blk-flush.c:304:6
	cbz	w8, .LBB10_4
.Ltmp186:
// %bb.1:
	//DEBUG_VALUE: hisi_blk_flush_reduced_queue_unregister:flush_queue_node <- [DW_OP_plus_uconst 1664, DW_OP_stack_value] $x0
	//DEBUG_VALUE: hisi_blk_flush_reduced_queue_unregister:hisi_queue <- [DW_OP_plus_uconst 1536, DW_OP_stack_value] $x0
	//DEBUG_VALUE: hisi_blk_flush_reduced_queue_unregister:q <- $x0
	.loc	2 305 26 is_stmt 1      // kernel/block/hisi-blk-flush.c:305:26
	ldr	x8, [x0, #1664]
	mov	x19, x0
.Ltmp187:
	//DEBUG_VALUE: hisi_blk_flush_reduced_queue_unregister:q <- $x19
	//DEBUG_VALUE: hisi_blk_flush_reduced_queue_unregister:hisi_queue <- [DW_OP_plus_uconst 1536, DW_OP_stack_value] $x19
	//DEBUG_VALUE: hisi_blk_flush_reduced_queue_unregister:flush_queue_node <- [DW_OP_plus_uconst 1664, DW_OP_stack_value] $x19
	//DEBUG_VALUE: hisi_blk_flush_reduced_queue_unregister:flush_queue_node <- [DW_OP_plus_uconst 1664, DW_OP_stack_value] $x19
	.loc	2 305 31 is_stmt 0      // kernel/block/hisi-blk-flush.c:305:31
	cbz	x8, .LBB10_4
.Ltmp188:
// %bb.2:
	//DEBUG_VALUE: hisi_blk_flush_reduced_queue_unregister:flush_queue_node <- [DW_OP_plus_uconst 1664, DW_OP_stack_value] $x19
	//DEBUG_VALUE: hisi_blk_flush_reduced_queue_unregister:hisi_queue <- [DW_OP_plus_uconst 1536, DW_OP_stack_value] $x19
	//DEBUG_VALUE: hisi_blk_flush_reduced_queue_unregister:q <- $x19
	.loc	2 305 53                // kernel/block/hisi-blk-flush.c:305:53
	ldr	x8, [x19, #1672]
.Ltmp189:
	.loc	2 305 7                 // kernel/block/hisi-blk-flush.c:305:7
	cbz	x8, .LBB10_4
.Ltmp190:
// %bb.3:
	//DEBUG_VALUE: hisi_blk_flush_reduced_queue_unregister:flush_queue_node <- [DW_OP_plus_uconst 1664, DW_OP_stack_value] $x19
	//DEBUG_VALUE: hisi_blk_flush_reduced_queue_unregister:hisi_queue <- [DW_OP_plus_uconst 1536, DW_OP_stack_value] $x19
	//DEBUG_VALUE: hisi_blk_flush_reduced_queue_unregister:q <- $x19
	.loc	2 309 3 is_stmt 1       // kernel/block/hisi-blk-flush.c:309:3
	adrp	x20, all_flush_q_lock
	add	x20, x20, :lo12:all_flush_q_lock
	mov	x0, x20
	bl	_raw_spin_lock_irqsave
.Ltmp191:
	.loc	140 120 20              // kernel/include/linux/list.h:120:20
	ldr	x8, [x19, #1672]
	.loc	140 120 33 is_stmt 0    // kernel/include/linux/list.h:120:33
	ldr	x9, [x19, #1664]
	mov	x10, #256
	movk	x10, #57005, lsl #48
.Ltmp192:
	.loc	2 309 3 is_stmt 1       // kernel/block/hisi-blk-flush.c:309:3
	mov	x1, x0
.Ltmp193:
	//DEBUG_VALUE: __list_del_entry:entry <- [DW_OP_plus_uconst 1664, DW_OP_stack_value] $x19
	//DEBUG_VALUE: list_del:entry <- [DW_OP_plus_uconst 1664, DW_OP_stack_value] $x19
	//DEBUG_VALUE: hisi_blk_flush_reduced_queue_unregister:flag <- $x1
	.loc	140 127 14              // kernel/include/linux/list.h:127:14
	add	x11, x10, #256          // =256
.Ltmp194:
	//DEBUG_VALUE: __list_del:next <- $x9
	//DEBUG_VALUE: __list_del:prev <- $x8
	.loc	139 372 2               // kernel/include/linux/spinlock.h:372:2
	mov	x0, x20
.Ltmp195:
	.loc	140 105 13              // kernel/include/linux/list.h:105:13
	str	x8, [x9, #8]
.Ltmp196:
	//DEBUG_VALUE: __write_once_size:p <- $x8
	//DEBUG_VALUE: __write_once_size:size <- 8
	//DEBUG_VALUE: __write_once_size:res <- undef
	//DEBUG_VALUE: __list_del_entry:entry <- [DW_OP_plus_uconst 1664, DW_OP_stack_value] $x19
	.loc	138 210 31              // kernel/include/linux/compiler.h:210:31
	str	x9, [x8]
.Ltmp197:
	.loc	140 126 14              // kernel/include/linux/list.h:126:14
	str	x10, [x19, #1664]
	.loc	140 127 14              // kernel/include/linux/list.h:127:14
	str	x11, [x19, #1672]
.Ltmp198:
	//DEBUG_VALUE: spin_unlock_irqrestore:flags <- $x1
	//DEBUG_VALUE: spin_unlock_irqrestore:lock <- $x20
	.loc	139 372 2               // kernel/include/linux/spinlock.h:372:2
	bl	_raw_spin_unlock_irqrestore
.Ltmp199:
.LBB10_4:
	.loc	2 313 1                 // kernel/block/hisi-blk-flush.c:313:1
	ldp	x29, x30, [sp, #16]     // 16-byte Folded Reload
	ldp	x20, x19, [sp], #32     // 16-byte Folded Reload
	ret
.Ltmp200:
.Lfunc_end10:
	.size	hisi_blk_flush_reduced_queue_unregister, .Lfunc_end10-hisi_blk_flush_reduced_queue_unregister
	.cfi_endproc
                                        // -- End function
	.globl	blk_mq_tagset_direct_flush_register // -- Begin function blk_mq_tagset_direct_flush_register
	.p2align	2
	.type	blk_mq_tagset_direct_flush_register,@function
blk_mq_tagset_direct_flush_register:    // @blk_mq_tagset_direct_flush_register
.Lfunc_begin11:
	.loc	2 321 0                 // kernel/block/hisi-blk-flush.c:321:0
	.cfi_startproc
// %bb.0:
	//DEBUG_VALUE: blk_mq_tagset_direct_flush_register:tag_set <- $x0
	//DEBUG_VALUE: blk_mq_tagset_direct_flush_register:tag_set <- $x0
	//DEBUG_VALUE: blk_mq_tagset_direct_flush_register:func <- $x1
	//DEBUG_VALUE: blk_mq_tagset_direct_flush_register:func <- $x1
	.loc	2 322 6 prologue_end    // kernel/block/hisi-blk-flush.c:322:6
	cbz	x0, .LBB11_2
.Ltmp201:
// %bb.1:
	//DEBUG_VALUE: blk_mq_tagset_direct_flush_register:func <- $x1
	//DEBUG_VALUE: blk_mq_tagset_direct_flush_register:tag_set <- $x0
	.loc	2 327 29                // kernel/block/hisi-blk-flush.c:327:29
	str	x1, [x0, #72]
	.loc	2 328 1                 // kernel/block/hisi-blk-flush.c:328:1
	ret
.Ltmp202:
.LBB11_2:
	//DEBUG_VALUE: blk_mq_tagset_direct_flush_register:func <- $x1
	//DEBUG_VALUE: blk_mq_tagset_direct_flush_register:tag_set <- $x0
	stp	x29, x30, [sp, #-16]!   // 16-byte Folded Spill
	mov	x29, sp
	.cfi_def_cfa w29, 16
	.cfi_offset w30, -8
	.cfi_offset w29, -16
.Ltmp203:
	.loc	2 323 3                 // kernel/block/hisi-blk-flush.c:323:3
	adrp	x0, .L.str.11
.Ltmp204:
	adrp	x1, .L__func__.blk_mq_tagset_direct_flush_register
.Ltmp205:
	add	x0, x0, :lo12:.L.str.11
	add	x1, x1, :lo12:.L__func__.blk_mq_tagset_direct_flush_register
	bl	printk
	.loc	2 324 3                 // kernel/block/hisi-blk-flush.c:324:3
	ldp	x29, x30, [sp], #16     // 16-byte Folded Reload
.Ltmp206:
	.loc	2 328 1                 // kernel/block/hisi-blk-flush.c:328:1
	ret
.Ltmp207:
.Lfunc_end11:
	.size	blk_mq_tagset_direct_flush_register, .Lfunc_end11-blk_mq_tagset_direct_flush_register
	.cfi_endproc
                                        // -- End function
	.globl	hisi_blk_queue_async_flush_init // -- Begin function hisi_blk_queue_async_flush_init
	.p2align	2
	.type	hisi_blk_queue_async_flush_init,@function
hisi_blk_queue_async_flush_init:        // @hisi_blk_queue_async_flush_init
.Lfunc_begin12:
	.loc	2 332 0                 // kernel/block/hisi-blk-flush.c:332:0
	.cfi_startproc
// %bb.0:
	//DEBUG_VALUE: hisi_blk_queue_async_flush_init:q <- $x0
	stp	x22, x21, [sp, #-48]!   // 16-byte Folded Spill
	stp	x20, x19, [sp, #16]     // 16-byte Folded Spill
	stp	x29, x30, [sp, #32]     // 16-byte Folded Spill
	add	x29, sp, #32            // =32
	.cfi_def_cfa w29, 16
	.cfi_offset w30, -8
	.cfi_offset w29, -16
	.cfi_offset w19, -24
	.cfi_offset w20, -32
	.cfi_offset w21, -40
	.cfi_offset w22, -48
	mov	x19, x0
.Ltmp208:
	//DEBUG_VALUE: hisi_blk_queue_async_flush_init:q <- $x19
	.loc	2 333 32 prologue_end   // kernel/block/hisi-blk-flush.c:333:32
	bl	hisi_blk_get_lld
.Ltmp209:
	//DEBUG_VALUE: hisi_blk_queue_async_flush_init:hisi_queue <- [DW_OP_plus_uconst 1536, DW_OP_stack_value] $x19
	.loc	2 337 6                 // kernel/block/hisi-blk-flush.c:337:6
	ldrb	w8, [x0, #24]
	tbz	w8, #2, .LBB12_10
.Ltmp210:
// %bb.1:
	//DEBUG_VALUE: hisi_blk_queue_async_flush_init:hisi_queue <- [DW_OP_plus_uconst 1536, DW_OP_stack_value] $x19
	//DEBUG_VALUE: hisi_blk_queue_async_flush_init:q <- $x19
	.loc	2 340 7                 // kernel/block/hisi-blk-flush.c:340:7
	adrp	x21, blk_async_flush_workqueue
	ldr	x8, [x21, :lo12:blk_async_flush_workqueue]
.Ltmp211:
	.loc	2 0 0 is_stmt 0         // kernel/block/hisi-blk-flush.c:0:0
	mov	x20, x0
.Ltmp212:
	//DEBUG_VALUE: hisi_blk_queue_async_flush_init:blk_lld <- $x20
	.loc	2 340 6                 // kernel/block/hisi-blk-flush.c:340:6
	cbnz	x8, .LBB12_3
.Ltmp213:
// %bb.2:
	//DEBUG_VALUE: hisi_blk_queue_async_flush_init:blk_lld <- $x20
	//DEBUG_VALUE: hisi_blk_queue_async_flush_init:hisi_queue <- [DW_OP_plus_uconst 1536, DW_OP_stack_value] $x19
	//DEBUG_VALUE: hisi_blk_queue_async_flush_init:q <- $x19
	.loc	2 342 4 is_stmt 1       // kernel/block/hisi-blk-flush.c:342:4
	adrp	x0, .L.str.12
	add	x0, x0, :lo12:.L.str.12
	orr	w1, wzr, #0x2
	mov	w2, wzr
	mov	x3, xzr
	mov	x4, xzr
	bl	__alloc_workqueue_key
	.loc	2 341 29                // kernel/block/hisi-blk-flush.c:341:29
	str	x0, [x21, :lo12:blk_async_flush_workqueue]
.Ltmp214:
	.loc	2 344 6                 // kernel/block/hisi-blk-flush.c:344:6
	cbz	x0, .LBB12_11
.Ltmp215:
.LBB12_3:
	//DEBUG_VALUE: hisi_blk_queue_async_flush_init:blk_lld <- $x20
	//DEBUG_VALUE: hisi_blk_queue_async_flush_init:hisi_queue <- [DW_OP_plus_uconst 1536, DW_OP_stack_value] $x19
	//DEBUG_VALUE: hisi_blk_queue_async_flush_init:q <- $x19
	.loc	138 209 31              // kernel/include/linux/compiler.h:209:31
	str	wzr, [x19, #1660]
.Ltmp216:
	.loc	2 350 25                // kernel/block/hisi-blk-flush.c:350:25
	ldr	x8, [x19, #1664]
.Ltmp217:
	.loc	2 0 0 is_stmt 0         // kernel/block/hisi-blk-flush.c:0:0
	add	x21, x19, #1664         // =1664
.Ltmp218:
	//DEBUG_VALUE: __write_once_size:size <- 4
	//DEBUG_VALUE: __write_once_size:res <- undef
	//DEBUG_VALUE: __write_once_size:p <- [DW_OP_plus_uconst 1660, DW_OP_stack_value] $x19
	//DEBUG_VALUE: hisi_blk_queue_async_flush_init:flush_queue_node <- $x21
	//DEBUG_VALUE: INIT_LIST_HEAD:list <- $x21
	//DEBUG_VALUE: __write_once_size:p <- $x21
	//DEBUG_VALUE: list_empty:head <- $x21
	//DEBUG_VALUE: list_add:new <- $x21
	//DEBUG_VALUE: __list_add:new <- $x21
	.loc	2 350 30                // kernel/block/hisi-blk-flush.c:350:30
	cbnz	x8, .LBB12_6
.Ltmp219:
// %bb.4:
	//DEBUG_VALUE: hisi_blk_queue_async_flush_init:flush_queue_node <- $x21
	//DEBUG_VALUE: hisi_blk_queue_async_flush_init:blk_lld <- $x20
	//DEBUG_VALUE: hisi_blk_queue_async_flush_init:hisi_queue <- [DW_OP_plus_uconst 1536, DW_OP_stack_value] $x19
	//DEBUG_VALUE: hisi_blk_queue_async_flush_init:q <- $x19
	.loc	2 350 52                // kernel/block/hisi-blk-flush.c:350:52
	ldr	x8, [x19, #1672]
.Ltmp220:
	.loc	2 350 6                 // kernel/block/hisi-blk-flush.c:350:6
	cbnz	x8, .LBB12_6
.Ltmp221:
// %bb.5:
	//DEBUG_VALUE: hisi_blk_queue_async_flush_init:flush_queue_node <- $x21
	//DEBUG_VALUE: hisi_blk_queue_async_flush_init:blk_lld <- $x20
	//DEBUG_VALUE: hisi_blk_queue_async_flush_init:hisi_queue <- [DW_OP_plus_uconst 1536, DW_OP_stack_value] $x19
	//DEBUG_VALUE: hisi_blk_queue_async_flush_init:q <- $x19
	//DEBUG_VALUE: __write_once_size:res <- undef
	//DEBUG_VALUE: __write_once_size:size <- 8
	.loc	138 210 31 is_stmt 1    // kernel/include/linux/compiler.h:210:31
	str	x21, [x19, #1664]
.Ltmp222:
	.loc	140 29 13               // kernel/include/linux/list.h:29:13
	str	x21, [x19, #1672]
.Ltmp223:
.LBB12_6:
	//DEBUG_VALUE: hisi_blk_queue_async_flush_init:flush_queue_node <- $x21
	//DEBUG_VALUE: hisi_blk_queue_async_flush_init:blk_lld <- $x20
	//DEBUG_VALUE: hisi_blk_queue_async_flush_init:hisi_queue <- [DW_OP_plus_uconst 1536, DW_OP_stack_value] $x19
	//DEBUG_VALUE: hisi_blk_queue_async_flush_init:q <- $x19
	.loc	2 353 2                 // kernel/block/hisi-blk-flush.c:353:2
	adrp	x10, __cfi_hisi_blk_flush_work_fn
	mov	x8, #68719476704
	add	x9, x19, #1568          // =1568
.Ltmp224:
	//DEBUG_VALUE: __write_once_size:res <- undef
	add	x10, x10, :lo12:__cfi_hisi_blk_flush_work_fn
.Ltmp225:
	.loc	2 353 2 is_stmt 0       // kernel/block/hisi-blk-flush.c:353:2
	add	x0, x19, #1592          // =1592
	orr	w1, wzr, #0x200000
	mov	x2, xzr
	mov	x3, xzr
.Ltmp226:
	.loc	2 353 2                 // kernel/block/hisi-blk-flush.c:353:2
	add	x22, x19, #1560         // =1560
	str	x8, [x19, #1560]
.Ltmp227:
	//DEBUG_VALUE: __write_once_size:p <- $x9
	//DEBUG_VALUE: __write_once_size:size <- 8
	//DEBUG_VALUE: INIT_LIST_HEAD:list <- $x9
	.loc	138 210 31 is_stmt 1    // kernel/include/linux/compiler.h:210:31
	str	x9, [x19, #1568]
.Ltmp228:
	.loc	140 29 13               // kernel/include/linux/list.h:29:13
	str	x9, [x19, #1576]
.Ltmp229:
	.loc	2 353 2                 // kernel/block/hisi-blk-flush.c:353:2
	str	x10, [x19, #1584]
.Ltmp230:
	.loc	2 353 2 is_stmt 0       // kernel/block/hisi-blk-flush.c:353:2
	bl	init_timer_key
.Ltmp231:
	adrp	x8, delayed_work_timer_fn
	add	x8, x8, :lo12:delayed_work_timer_fn
	str	x8, [x19, #1616]
	str	x22, [x19, #1624]
.Ltmp232:
	.loc	2 355 15 is_stmt 1      // kernel/block/hisi-blk-flush.c:355:15
	ldr	x8, [x20, #56]
	.loc	2 355 24 is_stmt 0      // kernel/block/hisi-blk-flush.c:355:24
	cbz	x8, .LBB12_9
.Ltmp233:
// %bb.7:
	//DEBUG_VALUE: hisi_blk_queue_async_flush_init:flush_queue_node <- $x21
	//DEBUG_VALUE: hisi_blk_queue_async_flush_init:blk_lld <- $x20
	//DEBUG_VALUE: hisi_blk_queue_async_flush_init:hisi_queue <- [DW_OP_plus_uconst 1536, DW_OP_stack_value] $x19
	//DEBUG_VALUE: hisi_blk_queue_async_flush_init:q <- $x19
	//DEBUG_VALUE: __read_once_size:res <- undef
	//DEBUG_VALUE: __read_once_size:size <- 8
	//DEBUG_VALUE: __read_once_size:p <- $x21
	.loc	138 183 2 is_stmt 1     // kernel/include/linux/compiler.h:183:2
	ldr	x8, [x21]
.Ltmp234:
	.loc	2 355 6                 // kernel/block/hisi-blk-flush.c:355:6
	cmp	x21, x8
	b.ne	.LBB12_9
.Ltmp235:
// %bb.8:
	//DEBUG_VALUE: hisi_blk_queue_async_flush_init:flush_queue_node <- $x21
	//DEBUG_VALUE: hisi_blk_queue_async_flush_init:blk_lld <- $x20
	//DEBUG_VALUE: hisi_blk_queue_async_flush_init:hisi_queue <- [DW_OP_plus_uconst 1536, DW_OP_stack_value] $x19
	//DEBUG_VALUE: hisi_blk_queue_async_flush_init:q <- $x19
	//DEBUG_VALUE: hisi_blk_flush_reduced_queue_register:q <- $x19
	.loc	2 293 2                 // kernel/block/hisi-blk-flush.c:293:2
	adrp	x20, all_flush_q_lock
.Ltmp236:
	add	x20, x20, :lo12:all_flush_q_lock
.Ltmp237:
	//DEBUG_VALUE: __write_once_size:p <- undef
	//DEBUG_VALUE: __write_once_size:res <- undef
	mov	x0, x20
	bl	_raw_spin_lock_irqsave
.Ltmp238:
	.loc	140 79 30               // kernel/include/linux/list.h:79:30
	adrp	x8, all_flush_q_list
	add	x8, x8, :lo12:all_flush_q_list
.Ltmp239:
	//DEBUG_VALUE: list_add:head <- $x8
	ldr	x9, [x8]
.Ltmp240:
	.loc	2 293 2                 // kernel/block/hisi-blk-flush.c:293:2
	mov	x1, x0
.Ltmp241:
	//DEBUG_VALUE: hisi_blk_flush_reduced_queue_register:flag <- $x1
	.loc	140 79 30               // kernel/include/linux/list.h:79:30
	adrp	x10, all_flush_q_list
.Ltmp242:
	//DEBUG_VALUE: __list_add:next <- $x9
	//DEBUG_VALUE: __list_add:prev <- $x8
	.loc	139 372 2               // kernel/include/linux/spinlock.h:372:2
	mov	x0, x20
.Ltmp243:
	.loc	140 63 13               // kernel/include/linux/list.h:63:13
	str	x21, [x9, #8]
	.loc	140 64 12               // kernel/include/linux/list.h:64:12
	str	x9, [x19, #1664]
	.loc	140 65 12               // kernel/include/linux/list.h:65:12
	str	x8, [x19, #1672]
.Ltmp244:
	//DEBUG_VALUE: __write_once_size:size <- 8
	.loc	138 210 31              // kernel/include/linux/compiler.h:210:31
	str	x21, [x10, :lo12:all_flush_q_list]
.Ltmp245:
	//DEBUG_VALUE: spin_unlock_irqrestore:flags <- $x1
	//DEBUG_VALUE: spin_unlock_irqrestore:lock <- $x20
	.loc	139 372 2               // kernel/include/linux/spinlock.h:372:2
	bl	_raw_spin_unlock_irqrestore
.Ltmp246:
.LBB12_9:
	//DEBUG_VALUE: hisi_blk_queue_async_flush_init:flush_queue_node <- $x21
	//DEBUG_VALUE: hisi_blk_queue_async_flush_init:hisi_queue <- [DW_OP_plus_uconst 1536, DW_OP_stack_value] $x19
	//DEBUG_VALUE: hisi_blk_queue_async_flush_init:q <- $x19
	.loc	139 0 2 is_stmt 0       // kernel/include/linux/spinlock.h:0:2
	orr	w8, wzr, #0x1
	.loc	2 358 29 is_stmt 1      // kernel/block/hisi-blk-flush.c:358:29
	str	w8, [x19, #1680]
.Ltmp247:
.LBB12_10:
	//DEBUG_VALUE: hisi_blk_queue_async_flush_init:hisi_queue <- [DW_OP_plus_uconst 1536, DW_OP_stack_value] $x19
	//DEBUG_VALUE: hisi_blk_queue_async_flush_init:q <- $x19
	.loc	2 359 1                 // kernel/block/hisi-blk-flush.c:359:1
	ldp	x29, x30, [sp, #32]     // 16-byte Folded Reload
	ldp	x20, x19, [sp, #16]     // 16-byte Folded Reload
.Ltmp248:
	ldp	x22, x21, [sp], #48     // 16-byte Folded Reload
	ret
.LBB12_11:
.Ltmp249:
	//DEBUG_VALUE: hisi_blk_queue_async_flush_init:blk_lld <- $x20
	//DEBUG_VALUE: hisi_blk_queue_async_flush_init:hisi_queue <- [DW_OP_plus_uconst 1536, DW_OP_stack_value] $x19
	//DEBUG_VALUE: hisi_blk_queue_async_flush_init:q <- $x19
	.loc	2 345 3                 // kernel/block/hisi-blk-flush.c:345:3
	adrp	x0, .L.str.13
	adrp	x1, .L__func__.hisi_blk_queue_async_flush_init
	add	x0, x0, :lo12:.L.str.13
	add	x1, x1, :lo12:.L__func__.hisi_blk_queue_async_flush_init
	bl	printk
	b	.LBB12_10
.Ltmp250:
.Lfunc_end12:
	.size	hisi_blk_queue_async_flush_init, .Lfunc_end12-hisi_blk_queue_async_flush_init
	.cfi_endproc
                                        // -- End function
	.globl	blk_flush_set_async     // -- Begin function blk_flush_set_async
	.p2align	2
	.type	blk_flush_set_async,@function
blk_flush_set_async:                    // @blk_flush_set_async
.Lfunc_begin13:
	.loc	2 365 0                 // kernel/block/hisi-blk-flush.c:365:0
	.cfi_startproc
// %bb.0:
	//DEBUG_VALUE: blk_flush_set_async:bio <- $x0
	//DEBUG_VALUE: blk_flush_set_async:bio <- $x0
	.loc	2 366 6 prologue_end    // kernel/block/hisi-blk-flush.c:366:6
	cbz	x0, .LBB13_2
// %bb.1:
	//DEBUG_VALUE: blk_flush_set_async:bio <- $x0
	.loc	2 0 6 is_stmt 0         // kernel/block/hisi-blk-flush.c:0:6
	orr	w8, wzr, #0x1
.Ltmp251:
	.loc	2 367 32 is_stmt 1      // kernel/block/hisi-blk-flush.c:367:32
	strb	w8, [x0, #138]
.Ltmp252:
.LBB13_2:
	//DEBUG_VALUE: blk_flush_set_async:bio <- $x0
	.loc	2 368 1                 // kernel/block/hisi-blk-flush.c:368:1
	ret
.Ltmp253:
.Lfunc_end13:
	.size	blk_flush_set_async, .Lfunc_end13-blk_flush_set_async
	.cfi_endproc
                                        // -- End function
	.globl	blk_queue_direct_flush_register // -- Begin function blk_queue_direct_flush_register
	.p2align	2
	.type	blk_queue_direct_flush_register,@function
blk_queue_direct_flush_register:        // @blk_queue_direct_flush_register
.Lfunc_begin14:
	.loc	2 378 0                 // kernel/block/hisi-blk-flush.c:378:0
	.cfi_startproc
// %bb.0:
	//DEBUG_VALUE: blk_queue_direct_flush_register:q <- $x0
	//DEBUG_VALUE: blk_queue_direct_flush_register:func <- $x1
	str	x21, [sp, #-48]!        // 8-byte Folded Spill
	stp	x20, x19, [sp, #16]     // 16-byte Folded Spill
	stp	x29, x30, [sp, #32]     // 16-byte Folded Spill
	add	x29, sp, #32            // =32
	.cfi_def_cfa w29, 16
	.cfi_offset w30, -8
	.cfi_offset w29, -16
	.cfi_offset w19, -24
	.cfi_offset w20, -32
	.cfi_offset w21, -48
.Ltmp254:
	//DEBUG_VALUE: blk_queue_direct_flush_register:flush_queue_node <- 0
	//DEBUG_VALUE: blk_queue_direct_flush_register:blk_lld <- 0
	.loc	2 382 6 prologue_end    // kernel/block/hisi-blk-flush.c:382:6
	cbz	x0, .LBB14_6
.Ltmp255:
// %bb.1:
	//DEBUG_VALUE: blk_queue_direct_flush_register:func <- $x1
	//DEBUG_VALUE: blk_queue_direct_flush_register:q <- $x0
	.loc	2 0 6 is_stmt 0         // kernel/block/hisi-blk-flush.c:0:6
	mov	x20, x1
.Ltmp256:
	//DEBUG_VALUE: blk_queue_direct_flush_register:func <- $x20
	mov	x19, x0
.Ltmp257:
	//DEBUG_VALUE: blk_queue_direct_flush_register:q <- $x19
	.loc	2 387 12 is_stmt 1      // kernel/block/hisi-blk-flush.c:387:12
	bl	hisi_blk_get_lld
.Ltmp258:
	//DEBUG_VALUE: blk_queue_direct_flush_register:blk_lld <- $x0
	.loc	2 389 25                // kernel/block/hisi-blk-flush.c:389:25
	ldr	x8, [x19, #1664]
.Ltmp259:
	.loc	2 388 36                // kernel/block/hisi-blk-flush.c:388:36
	add	x21, x19, #1664         // =1664
.Ltmp260:
	//DEBUG_VALUE: INIT_LIST_HEAD:list <- $x21
	//DEBUG_VALUE: __write_once_size:p <- $x21
	//DEBUG_VALUE: list_add:new <- $x21
	//DEBUG_VALUE: __list_add:new <- $x21
	//DEBUG_VALUE: blk_queue_direct_flush_register:flush_queue_node <- $x21
	.loc	2 389 30                // kernel/block/hisi-blk-flush.c:389:30
	cbnz	x8, .LBB14_3
.Ltmp261:
// %bb.2:
	//DEBUG_VALUE: blk_queue_direct_flush_register:flush_queue_node <- $x21
	//DEBUG_VALUE: blk_queue_direct_flush_register:blk_lld <- $x0
	//DEBUG_VALUE: blk_queue_direct_flush_register:q <- $x19
	//DEBUG_VALUE: blk_queue_direct_flush_register:func <- $x20
	.loc	2 389 52 is_stmt 0      // kernel/block/hisi-blk-flush.c:389:52
	ldr	x8, [x19, #1672]
.Ltmp262:
	.loc	2 389 6                 // kernel/block/hisi-blk-flush.c:389:6
	cbz	x8, .LBB14_8
.Ltmp263:
.LBB14_3:
	//DEBUG_VALUE: blk_queue_direct_flush_register:flush_queue_node <- $x21
	//DEBUG_VALUE: blk_queue_direct_flush_register:blk_lld <- $x0
	//DEBUG_VALUE: blk_queue_direct_flush_register:q <- $x19
	//DEBUG_VALUE: blk_queue_direct_flush_register:func <- $x20
	.loc	2 392 6 is_stmt 1       // kernel/block/hisi-blk-flush.c:392:6
	cbz	x20, .LBB14_9
.Ltmp264:
.LBB14_4:
	//DEBUG_VALUE: blk_queue_direct_flush_register:flush_queue_node <- $x21
	//DEBUG_VALUE: blk_queue_direct_flush_register:blk_lld <- $x0
	//DEBUG_VALUE: blk_queue_direct_flush_register:q <- $x19
	//DEBUG_VALUE: blk_queue_direct_flush_register:func <- $x20
	.loc	2 393 21                // kernel/block/hisi-blk-flush.c:393:21
	str	x20, [x0, #56]
.Ltmp265:
	//DEBUG_VALUE: hisi_blk_flush_reduced_queue_register:q <- $x19
	.loc	2 293 2                 // kernel/block/hisi-blk-flush.c:293:2
	adrp	x20, all_flush_q_lock
.Ltmp266:
	add	x20, x20, :lo12:all_flush_q_lock
.Ltmp267:
	//DEBUG_VALUE: __write_once_size:p <- undef
	//DEBUG_VALUE: __write_once_size:res <- undef
	mov	x0, x20
.Ltmp268:
	bl	_raw_spin_lock_irqsave
.Ltmp269:
	.loc	140 79 30               // kernel/include/linux/list.h:79:30
	adrp	x8, all_flush_q_list
	add	x8, x8, :lo12:all_flush_q_list
.Ltmp270:
	//DEBUG_VALUE: list_add:head <- $x8
	ldr	x9, [x8]
	adrp	x10, all_flush_q_list
.Ltmp271:
	//DEBUG_VALUE: __list_add:next <- $x9
	//DEBUG_VALUE: __list_add:prev <- $x8
	.loc	2 293 2                 // kernel/block/hisi-blk-flush.c:293:2
	mov	x1, x0
.Ltmp272:
	//DEBUG_VALUE: hisi_blk_flush_reduced_queue_register:flag <- $x1
	.loc	140 63 13               // kernel/include/linux/list.h:63:13
	str	x21, [x9, #8]
	.loc	140 64 12               // kernel/include/linux/list.h:64:12
	str	x9, [x19, #1664]
	.loc	140 65 12               // kernel/include/linux/list.h:65:12
	str	x8, [x19, #1672]
.Ltmp273:
	//DEBUG_VALUE: __write_once_size:size <- 8
	.loc	138 210 31              // kernel/include/linux/compiler.h:210:31
	str	x21, [x10, :lo12:all_flush_q_list]
.Ltmp274:
.LBB14_5:
	//DEBUG_VALUE: blk_queue_direct_flush_register:flush_queue_node <- $x21
	//DEBUG_VALUE: blk_queue_direct_flush_register:q <- $x19
	//DEBUG_VALUE: spin_unlock_irqrestore:flags <- $x1
	//DEBUG_VALUE: spin_unlock_irqrestore:lock <- $x20
	.loc	2 0 0 is_stmt 0         // kernel/block/hisi-blk-flush.c:0:0
	mov	x0, x20
	bl	_raw_spin_unlock_irqrestore
.Ltmp275:
	b	.LBB14_7
.Ltmp276:
.LBB14_6:
	//DEBUG_VALUE: blk_queue_direct_flush_register:func <- $x1
	//DEBUG_VALUE: blk_queue_direct_flush_register:q <- $x0
	.loc	2 383 3 is_stmt 1       // kernel/block/hisi-blk-flush.c:383:3
	adrp	x0, .L.str.14
.Ltmp277:
	adrp	x1, .L__func__.blk_queue_direct_flush_register
.Ltmp278:
	add	x0, x0, :lo12:.L.str.14
	add	x1, x1, :lo12:.L__func__.blk_queue_direct_flush_register
	bl	printk
.Ltmp279:
.LBB14_7:
	.loc	2 399 1                 // kernel/block/hisi-blk-flush.c:399:1
	ldp	x29, x30, [sp, #32]     // 16-byte Folded Reload
	ldp	x20, x19, [sp, #16]     // 16-byte Folded Reload
	ldr	x21, [sp], #48          // 8-byte Folded Reload
	ret
.LBB14_8:
.Ltmp280:
	//DEBUG_VALUE: blk_queue_direct_flush_register:flush_queue_node <- $x21
	//DEBUG_VALUE: blk_queue_direct_flush_register:blk_lld <- $x0
	//DEBUG_VALUE: blk_queue_direct_flush_register:q <- $x19
	//DEBUG_VALUE: blk_queue_direct_flush_register:func <- $x20
	//DEBUG_VALUE: __write_once_size:res <- undef
	//DEBUG_VALUE: __write_once_size:size <- 8
	.loc	138 210 31              // kernel/include/linux/compiler.h:210:31
	str	x21, [x19, #1664]
.Ltmp281:
	.loc	140 29 13               // kernel/include/linux/list.h:29:13
	str	x21, [x19, #1672]
.Ltmp282:
	.loc	2 392 6                 // kernel/block/hisi-blk-flush.c:392:6
	cbnz	x20, .LBB14_4
.Ltmp283:
.LBB14_9:
	//DEBUG_VALUE: blk_queue_direct_flush_register:flush_queue_node <- $x21
	//DEBUG_VALUE: blk_queue_direct_flush_register:blk_lld <- $x0
	//DEBUG_VALUE: blk_queue_direct_flush_register:q <- $x19
	//DEBUG_VALUE: blk_queue_direct_flush_register:func <- $x20
	.loc	2 396 21                // kernel/block/hisi-blk-flush.c:396:21
	str	xzr, [x0, #56]
.Ltmp284:
	//DEBUG_VALUE: hisi_blk_flush_reduced_queue_unregister:flush_queue_node <- [DW_OP_plus_uconst 1664, DW_OP_stack_value] $x19
	//DEBUG_VALUE: hisi_blk_flush_reduced_queue_unregister:hisi_queue <- [DW_OP_plus_uconst 1536, DW_OP_stack_value] $x19
	//DEBUG_VALUE: hisi_blk_flush_reduced_queue_unregister:q <- $x19
	.loc	2 304 18                // kernel/block/hisi-blk-flush.c:304:18
	ldr	w8, [x19, #1680]
.Ltmp285:
	.loc	2 304 6 is_stmt 0       // kernel/block/hisi-blk-flush.c:304:6
	cbz	w8, .LBB14_7
.Ltmp286:
// %bb.10:
	//DEBUG_VALUE: hisi_blk_flush_reduced_queue_unregister:q <- $x19
	//DEBUG_VALUE: hisi_blk_flush_reduced_queue_unregister:hisi_queue <- [DW_OP_plus_uconst 1536, DW_OP_stack_value] $x19
	//DEBUG_VALUE: hisi_blk_flush_reduced_queue_unregister:flush_queue_node <- [DW_OP_plus_uconst 1664, DW_OP_stack_value] $x19
	//DEBUG_VALUE: blk_queue_direct_flush_register:flush_queue_node <- $x21
	//DEBUG_VALUE: blk_queue_direct_flush_register:blk_lld <- $x0
	//DEBUG_VALUE: blk_queue_direct_flush_register:q <- $x19
	//DEBUG_VALUE: blk_queue_direct_flush_register:func <- $x20
	//DEBUG_VALUE: hisi_blk_flush_reduced_queue_unregister:flush_queue_node <- [DW_OP_plus_uconst 1664, DW_OP_stack_value] $x19
	.loc	2 305 26 is_stmt 1      // kernel/block/hisi-blk-flush.c:305:26
	ldr	x8, [x19, #1664]
	.loc	2 305 31 is_stmt 0      // kernel/block/hisi-blk-flush.c:305:31
	cbz	x8, .LBB14_7
.Ltmp287:
// %bb.11:
	//DEBUG_VALUE: hisi_blk_flush_reduced_queue_unregister:q <- $x19
	//DEBUG_VALUE: hisi_blk_flush_reduced_queue_unregister:hisi_queue <- [DW_OP_plus_uconst 1536, DW_OP_stack_value] $x19
	//DEBUG_VALUE: hisi_blk_flush_reduced_queue_unregister:flush_queue_node <- [DW_OP_plus_uconst 1664, DW_OP_stack_value] $x19
	//DEBUG_VALUE: blk_queue_direct_flush_register:flush_queue_node <- $x21
	//DEBUG_VALUE: blk_queue_direct_flush_register:blk_lld <- $x0
	//DEBUG_VALUE: blk_queue_direct_flush_register:q <- $x19
	//DEBUG_VALUE: blk_queue_direct_flush_register:func <- $x20
	.loc	2 305 53                // kernel/block/hisi-blk-flush.c:305:53
	ldr	x8, [x19, #1672]
.Ltmp288:
	.loc	2 305 7                 // kernel/block/hisi-blk-flush.c:305:7
	cbz	x8, .LBB14_7
.Ltmp289:
// %bb.12:
	//DEBUG_VALUE: hisi_blk_flush_reduced_queue_unregister:q <- $x19
	//DEBUG_VALUE: hisi_blk_flush_reduced_queue_unregister:hisi_queue <- [DW_OP_plus_uconst 1536, DW_OP_stack_value] $x19
	//DEBUG_VALUE: hisi_blk_flush_reduced_queue_unregister:flush_queue_node <- [DW_OP_plus_uconst 1664, DW_OP_stack_value] $x19
	//DEBUG_VALUE: blk_queue_direct_flush_register:flush_queue_node <- $x21
	//DEBUG_VALUE: blk_queue_direct_flush_register:blk_lld <- $x0
	//DEBUG_VALUE: blk_queue_direct_flush_register:q <- $x19
	//DEBUG_VALUE: blk_queue_direct_flush_register:func <- $x20
	.loc	2 309 3 is_stmt 1       // kernel/block/hisi-blk-flush.c:309:3
	adrp	x20, all_flush_q_lock
.Ltmp290:
	add	x20, x20, :lo12:all_flush_q_lock
	mov	x0, x20
.Ltmp291:
	bl	_raw_spin_lock_irqsave
.Ltmp292:
	.loc	140 120 20              // kernel/include/linux/list.h:120:20
	ldr	x8, [x19, #1672]
	.loc	140 120 33 is_stmt 0    // kernel/include/linux/list.h:120:33
	ldr	x9, [x19, #1664]
	mov	x10, #256
	movk	x10, #57005, lsl #48
.Ltmp293:
	.loc	2 309 3 is_stmt 1       // kernel/block/hisi-blk-flush.c:309:3
	mov	x1, x0
.Ltmp294:
	//DEBUG_VALUE: __list_del_entry:entry <- [DW_OP_plus_uconst 1664, DW_OP_stack_value] $x19
	//DEBUG_VALUE: list_del:entry <- [DW_OP_plus_uconst 1664, DW_OP_stack_value] $x19
	//DEBUG_VALUE: hisi_blk_flush_reduced_queue_unregister:flag <- $x1
	.loc	140 127 14              // kernel/include/linux/list.h:127:14
	add	x11, x10, #256          // =256
.Ltmp295:
	//DEBUG_VALUE: __list_del:next <- $x9
	//DEBUG_VALUE: __list_del:prev <- $x8
	.loc	140 105 13              // kernel/include/linux/list.h:105:13
	str	x8, [x9, #8]
.Ltmp296:
	//DEBUG_VALUE: __write_once_size:p <- $x8
	//DEBUG_VALUE: __write_once_size:size <- 8
	//DEBUG_VALUE: __write_once_size:res <- undef
	//DEBUG_VALUE: __list_del_entry:entry <- [DW_OP_plus_uconst 1664, DW_OP_stack_value] $x19
	.loc	138 210 31              // kernel/include/linux/compiler.h:210:31
	str	x9, [x8]
.Ltmp297:
	.loc	140 126 14              // kernel/include/linux/list.h:126:14
	str	x10, [x19, #1664]
	.loc	140 127 14              // kernel/include/linux/list.h:127:14
	str	x11, [x19, #1672]
	b	.LBB14_5
.Ltmp298:
.Lfunc_end14:
	.size	blk_queue_direct_flush_register, .Lfunc_end14-blk_queue_direct_flush_register
	.cfi_endproc
                                        // -- End function
	.globl	blk_queue_flush_reduce_config // -- Begin function blk_queue_flush_reduce_config
	.p2align	2
	.type	blk_queue_flush_reduce_config,@function
blk_queue_flush_reduce_config:          // @blk_queue_flush_reduce_config
.Lfunc_begin15:
	.loc	2 406 0                 // kernel/block/hisi-blk-flush.c:406:0
	.cfi_startproc
// %bb.0:
	//DEBUG_VALUE: blk_queue_flush_reduce_config:q <- $x0
	stp	x20, x19, [sp, #-32]!   // 16-byte Folded Spill
	stp	x29, x30, [sp, #16]     // 16-byte Folded Spill
	add	x29, sp, #16            // =16
	.cfi_def_cfa w29, 16
	.cfi_offset w30, -8
	.cfi_offset w29, -16
	.cfi_offset w19, -24
	.cfi_offset w20, -32
.Ltmp299:
	//DEBUG_VALUE: blk_queue_flush_reduce_config:blk_lld <- 0
	.loc	2 409 6 prologue_end    // kernel/block/hisi-blk-flush.c:409:6
	cbz	x0, .LBB15_2
.Ltmp300:
// %bb.1:
	//DEBUG_VALUE: blk_queue_flush_reduce_config:q <- $x0
	.loc	2 0 6 is_stmt 0         // kernel/block/hisi-blk-flush.c:0:6
	mov	w20, w1
	mov	x19, x0
.Ltmp301:
	//DEBUG_VALUE: blk_queue_flush_reduce_config:q <- $x19
	.loc	2 414 12 is_stmt 1      // kernel/block/hisi-blk-flush.c:414:12
	bl	hisi_blk_get_lld
.Ltmp302:
	//DEBUG_VALUE: blk_queue_flush_reduce_config:blk_lld <- $x0
	.loc	2 0 0 is_stmt 0         // kernel/block/hisi-blk-flush.c:0:0
	ldr	x8, [x0, #24]
.Ltmp303:
	.loc	2 415 6 is_stmt 1       // kernel/block/hisi-blk-flush.c:415:6
	tst	w20, #0x1
	and	x9, x8, #0xfffffffffffffffb
	orr	x8, x8, #0x4
	csel	x8, x8, x9, ne
.Ltmp304:
	.loc	2 0 0 is_stmt 0         // kernel/block/hisi-blk-flush.c:0:0
	str	x8, [x0, #24]
.Ltmp305:
	.loc	2 420 2 is_stmt 1       // kernel/block/hisi-blk-flush.c:420:2
	mov	x0, x19
.Ltmp306:
	bl	hisi_blk_queue_async_flush_init
	b	.LBB15_3
.Ltmp307:
.LBB15_2:
	//DEBUG_VALUE: blk_queue_flush_reduce_config:q <- $x0
	.loc	2 410 3                 // kernel/block/hisi-blk-flush.c:410:3
	adrp	x0, .L.str.14
.Ltmp308:
	adrp	x1, .L__func__.blk_queue_flush_reduce_config
	add	x0, x0, :lo12:.L.str.14
	add	x1, x1, :lo12:.L__func__.blk_queue_flush_reduce_config
	bl	printk
.Ltmp309:
.LBB15_3:
	.loc	2 421 1                 // kernel/block/hisi-blk-flush.c:421:1
	ldp	x29, x30, [sp, #16]     // 16-byte Folded Reload
	ldp	x20, x19, [sp], #32     // 16-byte Folded Reload
	ret
.Ltmp310:
.Lfunc_end15:
	.size	blk_queue_flush_reduce_config, .Lfunc_end15-blk_queue_flush_reduce_config
	.cfi_endproc
                                        // -- End function
	.globl	blk_mq_tagset_flush_reduce_config // -- Begin function blk_mq_tagset_flush_reduce_config
	.p2align	2
	.type	blk_mq_tagset_flush_reduce_config,@function
blk_mq_tagset_flush_reduce_config:      // @blk_mq_tagset_flush_reduce_config
.Lfunc_begin16:
	.loc	2 429 0                 // kernel/block/hisi-blk-flush.c:429:0
	.cfi_startproc
// %bb.0:
	//DEBUG_VALUE: blk_mq_tagset_flush_reduce_config:tag_set <- $x0
	//DEBUG_VALUE: blk_mq_tagset_flush_reduce_config:tag_set <- $x0
	.loc	2 430 6 prologue_end    // kernel/block/hisi-blk-flush.c:430:6
	cbz	x0, .LBB16_3
.Ltmp311:
// %bb.1:
	//DEBUG_VALUE: blk_mq_tagset_flush_reduce_config:tag_set <- $x0
	.loc	2 0 0 is_stmt 0         // kernel/block/hisi-blk-flush.c:0:0
	ldr	x8, [x0, #40]
.Ltmp312:
	.loc	2 435 6 is_stmt 1       // kernel/block/hisi-blk-flush.c:435:6
	tbz	w1, #0, .LBB16_4
.Ltmp313:
// %bb.2:
	//DEBUG_VALUE: blk_mq_tagset_flush_reduce_config:tag_set <- $x0
	.loc	2 436 30                // kernel/block/hisi-blk-flush.c:436:30
	orr	x8, x8, #0x4
	.loc	2 0 0 is_stmt 0         // kernel/block/hisi-blk-flush.c:0:0
	str	x8, [x0, #40]
.Ltmp314:
	.loc	2 439 1 is_stmt 1       // kernel/block/hisi-blk-flush.c:439:1
	ret
.Ltmp315:
.LBB16_3:
	//DEBUG_VALUE: blk_mq_tagset_flush_reduce_config:tag_set <- $x0
	stp	x29, x30, [sp, #-16]!   // 16-byte Folded Spill
	mov	x29, sp
	.cfi_def_cfa w29, 16
	.cfi_offset w30, -8
	.cfi_offset w29, -16
.Ltmp316:
	.loc	2 431 3                 // kernel/block/hisi-blk-flush.c:431:3
	adrp	x0, .L.str.11
.Ltmp317:
	adrp	x1, .L__func__.blk_mq_tagset_flush_reduce_config
	add	x0, x0, :lo12:.L.str.11
	add	x1, x1, :lo12:.L__func__.blk_mq_tagset_flush_reduce_config
	bl	printk
	.loc	2 432 3                 // kernel/block/hisi-blk-flush.c:432:3
	ldp	x29, x30, [sp], #16     // 16-byte Folded Reload
.Ltmp318:
	.loc	2 439 1                 // kernel/block/hisi-blk-flush.c:439:1
	ret
.LBB16_4:
.Ltmp319:
	//DEBUG_VALUE: blk_mq_tagset_flush_reduce_config:tag_set <- $x0
	.loc	2 438 30                // kernel/block/hisi-blk-flush.c:438:30
	and	x8, x8, #0xfffffffffffffffb
	.loc	2 0 0 is_stmt 0         // kernel/block/hisi-blk-flush.c:0:0
	str	x8, [x0, #40]
.Ltmp320:
	.loc	2 439 1 is_stmt 1       // kernel/block/hisi-blk-flush.c:439:1
	ret
.Ltmp321:
.Lfunc_end16:
	.size	blk_mq_tagset_flush_reduce_config, .Lfunc_end16-blk_mq_tagset_flush_reduce_config
	.cfi_endproc
                                        // -- End function
	.globl	blk_flush_async_support // -- Begin function blk_flush_async_support
	.p2align	2
	.type	blk_flush_async_support,@function
blk_flush_async_support:                // @blk_flush_async_support
.Lfunc_begin17:
	.loc	2 446 0                 // kernel/block/hisi-blk-flush.c:446:0
	.cfi_startproc
// %bb.0:
	//DEBUG_VALUE: blk_flush_async_support:bi_bdev <- $x0
	//DEBUG_VALUE: blk_flush_async_support:bi_bdev <- $x0
	//DEBUG_VALUE: blk_flush_async_support:q <- 0
	.loc	2 449 6 prologue_end    // kernel/block/hisi-blk-flush.c:449:6
	cbz	x0, .LBB17_3
.Ltmp322:
// %bb.1:
	//DEBUG_VALUE: blk_flush_async_support:bi_bdev <- $x0
	//DEBUG_VALUE: bdev_get_queue:bdev <- $x0
	.loc	13 1464 15              // kernel/include/linux/blkdev.h:1464:15
	ldr	x8, [x0, #160]
	.loc	13 1464 24 is_stmt 0    // kernel/include/linux/blkdev.h:1464:24
	ldr	x8, [x8, #1112]
.Ltmp323:
	//DEBUG_VALUE: blk_flush_async_support:q <- $x8
	.loc	2 455 6 is_stmt 1       // kernel/block/hisi-blk-flush.c:455:6
	cbz	x8, .LBB17_4
.Ltmp324:
// %bb.2:
	//DEBUG_VALUE: blk_flush_async_support:q <- $x8
	//DEBUG_VALUE: blk_flush_async_support:bi_bdev <- $x0
	.loc	2 456 24                // kernel/block/hisi-blk-flush.c:456:24
	ldr	w0, [x8, #1680]
.Ltmp325:
	.loc	2 459 1                 // kernel/block/hisi-blk-flush.c:459:1
	ret
.Ltmp326:
.LBB17_3:
	//DEBUG_VALUE: blk_flush_async_support:bi_bdev <- $x0
	stp	x29, x30, [sp, #-16]!   // 16-byte Folded Spill
	mov	x29, sp
	.cfi_def_cfa w29, 16
	.cfi_offset w30, -8
	.cfi_offset w29, -16
.Ltmp327:
	.loc	2 450 3                 // kernel/block/hisi-blk-flush.c:450:3
	adrp	x0, .L.str.15
.Ltmp328:
	adrp	x1, .L__func__.blk_flush_async_support
	add	x0, x0, :lo12:.L.str.15
	add	x1, x1, :lo12:.L__func__.blk_flush_async_support
	bl	printk
.Ltmp329:
	.loc	2 0 0 is_stmt 0         // kernel/block/hisi-blk-flush.c:0:0
	mov	w0, wzr
.Ltmp330:
	.loc	2 451 3 is_stmt 1       // kernel/block/hisi-blk-flush.c:451:3
	ldp	x29, x30, [sp], #16     // 16-byte Folded Reload
.Ltmp331:
	.loc	2 459 1                 // kernel/block/hisi-blk-flush.c:459:1
	ret
.LBB17_4:
.Ltmp332:
	//DEBUG_VALUE: blk_flush_async_support:q <- $x8
	//DEBUG_VALUE: blk_flush_async_support:bi_bdev <- $x0
	.loc	2 0 0 is_stmt 0         // kernel/block/hisi-blk-flush.c:0:0
	mov	w0, wzr
.Ltmp333:
	.loc	2 459 1                 // kernel/block/hisi-blk-flush.c:459:1
	ret
.Ltmp334:
.Lfunc_end17:
	.size	blk_flush_async_support, .Lfunc_end17-blk_flush_async_support
	.cfi_endproc
                                        // -- End function
	.type	.L.str,@object          // @.str
	.section	.rodata.str1.1,"aMS",@progbits,1
.L.str:
	.asciz	"\0013[BLK-IO]%s: blkdev_get fail!\n"
	.size	.L.str, 32

	.type	.L__func__.hisi_blk_flush_work_fn,@object // @__func__.hisi_blk_flush_work_fn
.L__func__.hisi_blk_flush_work_fn:
	.asciz	"hisi_blk_flush_work_fn"
	.size	.L__func__.hisi_blk_flush_work_fn, 23

	.type	.L.str.1,@object        // @.str.1
.L.str.1:
	.asciz	"\0013[BLK-IO]%s: blkdev_issue_flush fail!\n"
	.size	.L.str.1, 40

	.type	blk_async_flush_workqueue,@object // @blk_async_flush_workqueue
	.local	blk_async_flush_workqueue
	.comm	blk_async_flush_workqueue,8,8
	.type	.L.str.2,@object        // @.str.2
.L.str.2:
	.asciz	"\0013[BLK-IO]%s: emergency = %d\n"
	.size	.L.str.2, 30

	.type	.L__func__.blk_power_off_flush,@object // @__func__.blk_power_off_flush
.L__func__.blk_power_off_flush:
	.asciz	"blk_power_off_flush"
	.size	.L__func__.blk_power_off_flush, 20

	.type	all_flush_q_lock,@object // @all_flush_q_lock
	.data
	.p2align	3
all_flush_q_lock:
	.zero	4
	.word	3735899821              // 0xdead4ead
	.word	4294967295              // 0xffffffff
	.zero	4
	.xword	-1
	.size	all_flush_q_lock, 24

	.type	all_flush_q_list,@object // @all_flush_q_list
	.p2align	3
all_flush_q_list:
	.xword	all_flush_q_list
	.xword	all_flush_q_list
	.size	all_flush_q_list, 16

	.type	.L.str.3,@object        // @.str.3
	.section	.rodata.str1.1,"aMS",@progbits,1
.L.str.3:
	.asciz	"\0013[BLK-IO]%s: emergency flush on %s\n"
	.size	.L.str.3, 37

	.type	.L.str.4,@object        // @.str.4
.L.str.4:
	.asciz	"\0013[BLK-IO]%s: emergency flush on %s done!\n"
	.size	.L.str.4, 43

	.type	.L.str.5,@object        // @.str.5
.L.str.5:
	.asciz	"\0013[BLK-IO]%s: done!\n"
	.size	.L.str.5, 21

	.type	__kstrtab_blk_power_off_flush,@object // @__kstrtab_blk_power_off_flush
	.section	__ksymtab_strings,"a",@progbits
__kstrtab_blk_power_off_flush:
	.asciz	"blk_power_off_flush"
	.size	__kstrtab_blk_power_off_flush, 20

	.type	__ksymtab_blk_power_off_flush,@object // @__ksymtab_blk_power_off_flush
	.section	"___ksymtab_gpl+blk_power_off_flush","a",@progbits
	.p2align	3
__ksymtab_blk_power_off_flush:
	.xword	blk_power_off_flush
	.xword	__kstrtab_blk_power_off_flush
	.size	__ksymtab_blk_power_off_flush, 16

	.type	all_object_lock,@object // @all_object_lock
	.data
	.p2align	3
all_object_lock:
	.zero	4
	.word	3735899821              // 0xdead4ead
	.word	4294967295              // 0xffffffff
	.zero	4
	.xword	-1
	.size	all_object_lock, 24

	.type	all_object_list,@object // @all_object_list
	.p2align	3
all_object_list:
	.xword	all_object_list
	.xword	all_object_list
	.size	all_object_list, 16

	.type	.L.str.6,@object        // @.str.6
	.section	.rodata.str1.1,"aMS",@progbits,1
.L.str.6:
	.asciz	"\0013[BLK-IO]<%s> start. \r\n"
	.size	.L.str.6, 25

	.type	.L__func__.hisi_blk_order_panic_wait_flush,@object // @__func__.hisi_blk_order_panic_wait_flush
.L__func__.hisi_blk_order_panic_wait_flush:
	.asciz	"hisi_blk_order_panic_wait_flush"
	.size	.L__func__.hisi_blk_order_panic_wait_flush, 32

	.type	.L.str.7,@object        // @.str.7
.L.str.7:
	.asciz	"\0013[BLK-IO]<%s> type = %d. \r\n"
	.size	.L.str.7, 29

	.type	.L.str.8,@object        // @.str.8
.L.str.8:
	.asciz	"\0013[BLK-IO]<%s> normal end. \r\n"
	.size	.L.str.8, 30

	.type	.L.str.9,@object        // @.str.9
.L.str.9:
	.asciz	"\0013[BLK-IO]<%s> timeout end. \r\n"
	.size	.L.str.9, 31

	.type	.L__func__.hisi_blk_panic_flush,@object // @__func__.hisi_blk_panic_flush
.L__func__.hisi_blk_panic_flush:
	.asciz	"hisi_blk_panic_flush"
	.size	.L__func__.hisi_blk_panic_flush, 21

	.type	__kstrtab_hisi_blk_panic_flush,@object // @__kstrtab_hisi_blk_panic_flush
	.section	__ksymtab_strings,"a",@progbits
__kstrtab_hisi_blk_panic_flush:
	.asciz	"hisi_blk_panic_flush"
	.size	__kstrtab_hisi_blk_panic_flush, 21

	.type	__ksymtab_hisi_blk_panic_flush,@object // @__ksymtab_hisi_blk_panic_flush
	.section	"___ksymtab+hisi_blk_panic_flush","a",@progbits
	.p2align	3
__ksymtab_hisi_blk_panic_flush:
	.xword	hisi_blk_panic_flush
	.xword	__kstrtab_hisi_blk_panic_flush
	.size	__ksymtab_hisi_blk_panic_flush, 16

	.type	hisi_blk_poweroff_flush_nb,@object // @hisi_blk_poweroff_flush_nb
	.data
	.p2align	3
hisi_blk_poweroff_flush_nb:
	.xword	__cfi_hisi_blk_poweroff_flush_notifier_call
	.xword	0
	.word	0                       // 0x0
	.zero	4
	.size	hisi_blk_poweroff_flush_nb, 24

	.type	__initcall___cfi_hisi_blk_flush_init6,@object // @__initcall___cfi_hisi_blk_flush_init6
	.section	.initcall6.init,"aw",@progbits
	.p2align	3
__initcall___cfi_hisi_blk_flush_init6:
	.xword	__cfi_hisi_blk_flush_init
	.size	__initcall___cfi_hisi_blk_flush_init6, 8

	.type	.L.str.11,@object       // @.str.11
	.section	.rodata.str1.1,"aMS",@progbits,1
.L.str.11:
	.asciz	"\0013[BLK-IO]%s: tag_set is NULL!\n"
	.size	.L.str.11, 32

	.type	.L__func__.blk_mq_tagset_direct_flush_register,@object // @__func__.blk_mq_tagset_direct_flush_register
.L__func__.blk_mq_tagset_direct_flush_register:
	.asciz	"blk_mq_tagset_direct_flush_register"
	.size	.L__func__.blk_mq_tagset_direct_flush_register, 36

	.type	__kstrtab_blk_mq_tagset_direct_flush_register,@object // @__kstrtab_blk_mq_tagset_direct_flush_register
	.section	__ksymtab_strings,"a",@progbits
__kstrtab_blk_mq_tagset_direct_flush_register:
	.asciz	"blk_mq_tagset_direct_flush_register"
	.size	__kstrtab_blk_mq_tagset_direct_flush_register, 36

	.type	__ksymtab_blk_mq_tagset_direct_flush_register,@object // @__ksymtab_blk_mq_tagset_direct_flush_register
	.section	"___ksymtab_gpl+blk_mq_tagset_direct_flush_register","a",@progbits
	.p2align	3
__ksymtab_blk_mq_tagset_direct_flush_register:
	.xword	blk_mq_tagset_direct_flush_register
	.xword	__kstrtab_blk_mq_tagset_direct_flush_register
	.size	__ksymtab_blk_mq_tagset_direct_flush_register, 16

	.type	.L.str.12,@object       // @.str.12
	.section	.rodata.str1.1,"aMS",@progbits,1
.L.str.12:
	.asciz	"async_flush"
	.size	.L.str.12, 12

	.type	.L.str.13,@object       // @.str.13
.L.str.13:
	.asciz	"\0013[BLK-IO]%s: Failed to alloc workqueue!\n"
	.size	.L.str.13, 42

	.type	.L__func__.hisi_blk_queue_async_flush_init,@object // @__func__.hisi_blk_queue_async_flush_init
.L__func__.hisi_blk_queue_async_flush_init:
	.asciz	"hisi_blk_queue_async_flush_init"
	.size	.L__func__.hisi_blk_queue_async_flush_init, 32

	.type	__kstrtab_blk_flush_set_async,@object // @__kstrtab_blk_flush_set_async
	.section	__ksymtab_strings,"a",@progbits
__kstrtab_blk_flush_set_async:
	.asciz	"blk_flush_set_async"
	.size	__kstrtab_blk_flush_set_async, 20

	.type	__ksymtab_blk_flush_set_async,@object // @__ksymtab_blk_flush_set_async
	.section	"___ksymtab_gpl+blk_flush_set_async","a",@progbits
	.p2align	3
__ksymtab_blk_flush_set_async:
	.xword	blk_flush_set_async
	.xword	__kstrtab_blk_flush_set_async
	.size	__ksymtab_blk_flush_set_async, 16

	.type	.L.str.14,@object       // @.str.14
	.section	.rodata.str1.1,"aMS",@progbits,1
.L.str.14:
	.asciz	"\0013[BLK-IO]%s: q is NULL!\n"
	.size	.L.str.14, 26

	.type	.L__func__.blk_queue_direct_flush_register,@object // @__func__.blk_queue_direct_flush_register
.L__func__.blk_queue_direct_flush_register:
	.asciz	"blk_queue_direct_flush_register"
	.size	.L__func__.blk_queue_direct_flush_register, 32

	.type	.L__func__.blk_queue_flush_reduce_config,@object // @__func__.blk_queue_flush_reduce_config
.L__func__.blk_queue_flush_reduce_config:
	.asciz	"blk_queue_flush_reduce_config"
	.size	.L__func__.blk_queue_flush_reduce_config, 30

	.type	.L__func__.blk_mq_tagset_flush_reduce_config,@object // @__func__.blk_mq_tagset_flush_reduce_config
.L__func__.blk_mq_tagset_flush_reduce_config:
	.asciz	"blk_mq_tagset_flush_reduce_config"
	.size	.L__func__.blk_mq_tagset_flush_reduce_config, 34

	.type	__kstrtab_blk_mq_tagset_flush_reduce_config,@object // @__kstrtab_blk_mq_tagset_flush_reduce_config
	.section	__ksymtab_strings,"a",@progbits
__kstrtab_blk_mq_tagset_flush_reduce_config:
	.asciz	"blk_mq_tagset_flush_reduce_config"
	.size	__kstrtab_blk_mq_tagset_flush_reduce_config, 34

	.type	__ksymtab_blk_mq_tagset_flush_reduce_config,@object // @__ksymtab_blk_mq_tagset_flush_reduce_config
	.section	"___ksymtab_gpl+blk_mq_tagset_flush_reduce_config","a",@progbits
	.p2align	3
__ksymtab_blk_mq_tagset_flush_reduce_config:
	.xword	blk_mq_tagset_flush_reduce_config
	.xword	__kstrtab_blk_mq_tagset_flush_reduce_config
	.size	__ksymtab_blk_mq_tagset_flush_reduce_config, 16

	.type	.L.str.15,@object       // @.str.15
	.section	.rodata.str1.1,"aMS",@progbits,1
.L.str.15:
	.asciz	"\0013[BLK-IO]%s: bi_bdev is NULL!\n"
	.size	.L.str.15, 32

	.type	.L__func__.blk_flush_async_support,@object // @__func__.blk_flush_async_support
.L__func__.blk_flush_async_support:
	.asciz	"blk_flush_async_support"
	.size	.L__func__.blk_flush_async_support, 24

	.type	__kstrtab_blk_flush_async_support,@object // @__kstrtab_blk_flush_async_support
	.section	__ksymtab_strings,"a",@progbits
__kstrtab_blk_flush_async_support:
	.asciz	"blk_flush_async_support"
	.size	__kstrtab_blk_flush_async_support, 24

	.type	__ksymtab_blk_flush_async_support,@object // @__ksymtab_blk_flush_async_support
	.section	"___ksymtab_gpl+blk_flush_async_support","a",@progbits
	.p2align	3
__ksymtab_blk_flush_async_support:
	.xword	blk_flush_async_support
	.xword	__kstrtab_blk_flush_async_support
	.size	__ksymtab_blk_flush_async_support, 16

	.type	.L__func__.hisi_blk_order_poweroff_proc,@object // @__func__.hisi_blk_order_poweroff_proc
	.section	.rodata.str1.1,"aMS",@progbits,1
.L__func__.hisi_blk_order_poweroff_proc:
	.asciz	"hisi_blk_order_poweroff_proc"
	.size	.L__func__.hisi_blk_order_poweroff_proc, 29
